Archive member included to satisfy reference by file (symbol)

d:/00_program_installation/microchip/xc32/v2.10/bin/bin/../../lib/gcc/pic32c/6.2.1/../../../../pic32c/lib/v7e-m/fpv5/hard\libpic32c.a(data_init.o)
                              build/default/production/_ext/1171490990/startup.o (__pic32c_data_initialization)
d:/00_program_installation/microchip/xc32/v2.10/bin/bin/../../lib/gcc/pic32c/6.2.1/v7e-m/fpv5/hard\libgcc.a(_aeabi_uldivmod.o)
                              build/default/production/_ext/444070925/drv_ethphy.o (__aeabi_uldivmod)
d:/00_program_installation/microchip/xc32/v2.10/bin/bin/../../lib/gcc/pic32c/6.2.1/v7e-m/fpv5/hard\libgcc.a(_udivmoddi4.o)
                              d:/00_program_installation/microchip/xc32/v2.10/bin/bin/../../lib/gcc/pic32c/6.2.1/v7e-m/fpv5/hard\libgcc.a(_aeabi_uldivmod.o) (__udivmoddi4)
d:/00_program_installation/microchip/xc32/v2.10/bin/bin/../../lib/gcc/pic32c/6.2.1/v7e-m/fpv5/hard\libgcc.a(_dvmd_tls.o)
                              d:/00_program_installation/microchip/xc32/v2.10/bin/bin/../../lib/gcc/pic32c/6.2.1/v7e-m/fpv5/hard\libgcc.a(_aeabi_uldivmod.o) (__aeabi_ldiv0)
d:/00_program_installation/microchip/xc32/v2.10/bin/bin/../../lib/gcc/pic32c/6.2.1/../../../../pic32c/lib/v7e-m/fpv5/hard\libc.a(lib_a-calloc.o)
                              build/default/production/_ext/1171490990/initialization.o (calloc)
d:/00_program_installation/microchip/xc32/v2.10/bin/bin/../../lib/gcc/pic32c/6.2.1/../../../../pic32c/lib/v7e-m/fpv5/hard\libc.a(lib_a-callocr.o)
                              d:/00_program_installation/microchip/xc32/v2.10/bin/bin/../../lib/gcc/pic32c/6.2.1/../../../../pic32c/lib/v7e-m/fpv5/hard\libc.a(lib_a-calloc.o) (_calloc_r)
d:/00_program_installation/microchip/xc32/v2.10/bin/bin/../../lib/gcc/pic32c/6.2.1/../../../../pic32c/lib/v7e-m/fpv5/hard\libc.a(lib_a-errno.o)
                              build/default/production/_ext/1033058136/berkeley_api.o (__errno)
d:/00_program_installation/microchip/xc32/v2.10/bin/bin/../../lib/gcc/pic32c/6.2.1/../../../../pic32c/lib/v7e-m/fpv5/hard\libc.a(lib_a-exit.o)
                              d:/00_program_installation/microchip/xc32/v2.10/bin/bin/../../lib/gcc/pic32c/6.2.1/../../../../pic32c/lib/v7e-m/fpv5/hard/crt0.o (exit)
d:/00_program_installation/microchip/xc32/v2.10/bin/bin/../../lib/gcc/pic32c/6.2.1/../../../../pic32c/lib/v7e-m/fpv5/hard\libc.a(lib_a-impure.o)
                              d:/00_program_installation/microchip/xc32/v2.10/bin/bin/../../lib/gcc/pic32c/6.2.1/../../../../pic32c/lib/v7e-m/fpv5/hard\libc.a(lib_a-exit.o) (_global_impure_ptr)
d:/00_program_installation/microchip/xc32/v2.10/bin/bin/../../lib/gcc/pic32c/6.2.1/../../../../pic32c/lib/v7e-m/fpv5/hard\libc.a(lib_a-init.o)
                              d:/00_program_installation/microchip/xc32/v2.10/bin/bin/../../lib/gcc/pic32c/6.2.1/../../../../pic32c/lib/v7e-m/fpv5/hard/crt0.o (__libc_init_array)
d:/00_program_installation/microchip/xc32/v2.10/bin/bin/../../lib/gcc/pic32c/6.2.1/../../../../pic32c/lib/v7e-m/fpv5/hard\libc.a(lib_a-locale.o)
                              build/default/production/_ext/1033058136/dhcp.o (__locale_ctype_ptr)
d:/00_program_installation/microchip/xc32/v2.10/bin/bin/../../lib/gcc/pic32c/6.2.1/../../../../pic32c/lib/v7e-m/fpv5/hard\libc.a(lib_a-malloc.o)
                              build/default/production/_ext/1171490990/initialization.o (malloc)
d:/00_program_installation/microchip/xc32/v2.10/bin/bin/../../lib/gcc/pic32c/6.2.1/../../../../pic32c/lib/v7e-m/fpv5/hard\libc.a(lib_a-mallocr.o)
                              d:/00_program_installation/microchip/xc32/v2.10/bin/bin/../../lib/gcc/pic32c/6.2.1/../../../../pic32c/lib/v7e-m/fpv5/hard\libc.a(lib_a-callocr.o) (_malloc_r)
d:/00_program_installation/microchip/xc32/v2.10/bin/bin/../../lib/gcc/pic32c/6.2.1/../../../../pic32c/lib/v7e-m/fpv5/hard\libc.a(lib_a-mbtowc_r.o)
                              d:/00_program_installation/microchip/xc32/v2.10/bin/bin/../../lib/gcc/pic32c/6.2.1/../../../../pic32c/lib/v7e-m/fpv5/hard\libc.a(lib_a-locale.o) (__ascii_mbtowc)
d:/00_program_installation/microchip/xc32/v2.10/bin/bin/../../lib/gcc/pic32c/6.2.1/../../../../pic32c/lib/v7e-m/fpv5/hard\libc.a(lib_a-memcmp.o)
                              build/default/production/_ext/1546807373/drv_gmac.o (memcmp)
d:/00_program_installation/microchip/xc32/v2.10/bin/bin/../../lib/gcc/pic32c/6.2.1/../../../../pic32c/lib/v7e-m/fpv5/hard\libc.a(lib_a-memcpy.o)
                              build/default/production/_ext/1546807373/drv_gmac.o (memcpy)
d:/00_program_installation/microchip/xc32/v2.10/bin/bin/../../lib/gcc/pic32c/6.2.1/../../../../pic32c/lib/v7e-m/fpv5/hard\libc.a(lib_a-memset.o)
                              d:/00_program_installation/microchip/xc32/v2.10/bin/bin/../../lib/gcc/pic32c/6.2.1/../../../../pic32c/lib/v7e-m/fpv5/hard/crt0.o (memset)
d:/00_program_installation/microchip/xc32/v2.10/bin/bin/../../lib/gcc/pic32c/6.2.1/../../../../pic32c/lib/v7e-m/fpv5/hard\libc.a(lib_a-mlock.o)
                              d:/00_program_installation/microchip/xc32/v2.10/bin/bin/../../lib/gcc/pic32c/6.2.1/../../../../pic32c/lib/v7e-m/fpv5/hard\libc.a(lib_a-mallocr.o) (__malloc_lock)
d:/00_program_installation/microchip/xc32/v2.10/bin/bin/../../lib/gcc/pic32c/6.2.1/../../../../pic32c/lib/v7e-m/fpv5/hard\libc.a(lib_a-rand.o)
                              build/default/production/_ext/1033058136/dhcp.o (rand)
d:/00_program_installation/microchip/xc32/v2.10/bin/bin/../../lib/gcc/pic32c/6.2.1/../../../../pic32c/lib/v7e-m/fpv5/hard\libc.a(lib_a-sbrkr.o)
                              d:/00_program_installation/microchip/xc32/v2.10/bin/bin/../../lib/gcc/pic32c/6.2.1/../../../../pic32c/lib/v7e-m/fpv5/hard\libc.a(lib_a-mallocr.o) (_sbrk_r)
d:/00_program_installation/microchip/xc32/v2.10/bin/bin/../../lib/gcc/pic32c/6.2.1/../../../../pic32c/lib/v7e-m/fpv5/hard\libc.a(lib_a-strcmp.o)
                              build/default/production/_ext/1033058136/dns.o (strcmp)
d:/00_program_installation/microchip/xc32/v2.10/bin/bin/../../lib/gcc/pic32c/6.2.1/../../../../pic32c/lib/v7e-m/fpv5/hard\libc.a(lib_a-strcpy.o)
                              build/default/production/_ext/1033058136/tcpip_helpers.o (strcpy)
d:/00_program_installation/microchip/xc32/v2.10/bin/bin/../../lib/gcc/pic32c/6.2.1/../../../../pic32c/lib/v7e-m/fpv5/hard\libc.a(lib_a-strlen.o)
                              build/default/production/_ext/1033058136/berkeley_api.o (strlen)
d:/00_program_installation/microchip/xc32/v2.10/bin/bin/../../lib/gcc/pic32c/6.2.1/../../../../pic32c/lib/v7e-m/fpv5/hard\libc.a(lib_a-strncpy.o)
                              build/default/production/_ext/1546807373/drv_gmac.o (strncpy)
d:/00_program_installation/microchip/xc32/v2.10/bin/bin/../../lib/gcc/pic32c/6.2.1/../../../../pic32c/lib/v7e-m/fpv5/hard\libc.a(lib_a-strtol.o)
                              build/default/production/_ext/1033058136/tcpip_helpers.o (strtol)
d:/00_program_installation/microchip/xc32/v2.10/bin/bin/../../lib/gcc/pic32c/6.2.1/../../../../pic32c/lib/v7e-m/fpv5/hard\libc.a(lib_a-wctomb_r.o)
                              d:/00_program_installation/microchip/xc32/v2.10/bin/bin/../../lib/gcc/pic32c/6.2.1/../../../../pic32c/lib/v7e-m/fpv5/hard\libc.a(lib_a-locale.o) (__ascii_wctomb)
d:/00_program_installation/microchip/xc32/v2.10/bin/bin/../../lib/gcc/pic32c/6.2.1/../../../../pic32c/lib/v7e-m/fpv5/hard\libc.a(snprintf.cdnopsuxX.o)
                              (_snprintf_cdnopsuxX)
d:/00_program_installation/microchip/xc32/v2.10/bin/bin/../../lib/gcc/pic32c/6.2.1/../../../../pic32c/lib/v7e-m/fpv5/hard\libc.a(sprintf.cdnopsuxX.o)
                              (_sprintf_cdnopsuxX)
d:/00_program_installation/microchip/xc32/v2.10/bin/bin/../../lib/gcc/pic32c/6.2.1/../../../../pic32c/lib/v7e-m/fpv5/hard\libc.a(vfprintf.cdnopsuxX.o)
                              d:/00_program_installation/microchip/xc32/v2.10/bin/bin/../../lib/gcc/pic32c/6.2.1/../../../../pic32c/lib/v7e-m/fpv5/hard\libc.a(sprintf.cdnopsuxX.o) (_vfprintf_cdnopsuxX)
d:/00_program_installation/microchip/xc32/v2.10/bin/bin/../../lib/gcc/pic32c/6.2.1/../../../../pic32c/lib/v7e-m/fpv5/hard\libc.a(vsnprintf.cdnopsuxX.o)
                              d:/00_program_installation/microchip/xc32/v2.10/bin/bin/../../lib/gcc/pic32c/6.2.1/../../../../pic32c/lib/v7e-m/fpv5/hard\libc.a(snprintf.cdnopsuxX.o) (_vsnprintf_cdnopsuxX)
d:/00_program_installation/microchip/xc32/v2.10/bin/bin/../../lib/gcc/pic32c/6.2.1/../../../../pic32c/lib/v7e-m/fpv5/hard\libc.a(lib_a-__call_atexit.o)
                              d:/00_program_installation/microchip/xc32/v2.10/bin/bin/../../lib/gcc/pic32c/6.2.1/../../../../pic32c/lib/v7e-m/fpv5/hard\libc.a(lib_a-exit.o) (__call_exitprocs)
d:/00_program_installation/microchip/xc32/v2.10/bin/bin/../../lib/gcc/pic32c/6.2.1/../../../../pic32c/lib/v7e-m/fpv5/hard\libc.a(lib_a-atexit.o)
                              d:/00_program_installation/microchip/xc32/v2.10/bin/bin/../../lib/gcc/pic32c/6.2.1/../../../../pic32c/lib/v7e-m/fpv5/hard\libc.a(lib_a-__call_atexit.o) (atexit)
d:/00_program_installation/microchip/xc32/v2.10/bin/bin/../../lib/gcc/pic32c/6.2.1/../../../../pic32c/lib/v7e-m/fpv5/hard\libc.a(lib_a-ctype_.o)
                              d:/00_program_installation/microchip/xc32/v2.10/bin/bin/../../lib/gcc/pic32c/6.2.1/../../../../pic32c/lib/v7e-m/fpv5/hard\libc.a(lib_a-locale.o) (_ctype_)
d:/00_program_installation/microchip/xc32/v2.10/bin/bin/../../lib/gcc/pic32c/6.2.1/../../../../pic32c/lib/v7e-m/fpv5/hard\libc.a(lib_a-fflush.o)
                              d:/00_program_installation/microchip/xc32/v2.10/bin/bin/../../lib/gcc/pic32c/6.2.1/../../../../pic32c/lib/v7e-m/fpv5/hard\libc.a(vfprintf.cdnopsuxX.o) (_fflush_r)
d:/00_program_installation/microchip/xc32/v2.10/bin/bin/../../lib/gcc/pic32c/6.2.1/../../../../pic32c/lib/v7e-m/fpv5/hard\libc.a(lib_a-findfp.o)
                              d:/00_program_installation/microchip/xc32/v2.10/bin/bin/../../lib/gcc/pic32c/6.2.1/../../../../pic32c/lib/v7e-m/fpv5/hard\libc.a(vfprintf.cdnopsuxX.o) (__sinit)
d:/00_program_installation/microchip/xc32/v2.10/bin/bin/../../lib/gcc/pic32c/6.2.1/../../../../pic32c/lib/v7e-m/fpv5/hard\libc.a(lib_a-fini.o)
                              d:/00_program_installation/microchip/xc32/v2.10/bin/bin/../../lib/gcc/pic32c/6.2.1/../../../../pic32c/lib/v7e-m/fpv5/hard\libc.a(lib_a-__call_atexit.o) (__libc_fini_array)
d:/00_program_installation/microchip/xc32/v2.10/bin/bin/../../lib/gcc/pic32c/6.2.1/../../../../pic32c/lib/v7e-m/fpv5/hard\libc.a(lib_a-freer.o)
                              d:/00_program_installation/microchip/xc32/v2.10/bin/bin/../../lib/gcc/pic32c/6.2.1/../../../../pic32c/lib/v7e-m/fpv5/hard\libc.a(lib_a-malloc.o) (_free_r)
d:/00_program_installation/microchip/xc32/v2.10/bin/bin/../../lib/gcc/pic32c/6.2.1/../../../../pic32c/lib/v7e-m/fpv5/hard\libc.a(lib_a-fwalk.o)
                              d:/00_program_installation/microchip/xc32/v2.10/bin/bin/../../lib/gcc/pic32c/6.2.1/../../../../pic32c/lib/v7e-m/fpv5/hard\libc.a(lib_a-findfp.o) (_fwalk)
d:/00_program_installation/microchip/xc32/v2.10/bin/bin/../../lib/gcc/pic32c/6.2.1/../../../../pic32c/lib/v7e-m/fpv5/hard\libc.a(lib_a-memchr.o)
                              d:/00_program_installation/microchip/xc32/v2.10/bin/bin/../../lib/gcc/pic32c/6.2.1/../../../../pic32c/lib/v7e-m/fpv5/hard\libc.a(vfprintf.cdnopsuxX.o) (memchr)
d:/00_program_installation/microchip/xc32/v2.10/bin/bin/../../lib/gcc/pic32c/6.2.1/../../../../pic32c/lib/v7e-m/fpv5/hard\libc.a(lib_a-reent.o)
                              d:/00_program_installation/microchip/xc32/v2.10/bin/bin/../../lib/gcc/pic32c/6.2.1/../../../../pic32c/lib/v7e-m/fpv5/hard\libc.a(lib_a-sbrkr.o) (errno)
d:/00_program_installation/microchip/xc32/v2.10/bin/bin/../../lib/gcc/pic32c/6.2.1/../../../../pic32c/lib/v7e-m/fpv5/hard\libc.a(lib_a-stdio.o)
                              d:/00_program_installation/microchip/xc32/v2.10/bin/bin/../../lib/gcc/pic32c/6.2.1/../../../../pic32c/lib/v7e-m/fpv5/hard\libc.a(lib_a-findfp.o) (__sread)
d:/00_program_installation/microchip/xc32/v2.10/bin/bin/../../lib/gcc/pic32c/6.2.1/../../../../pic32c/lib/v7e-m/fpv5/hard\libc.a(lib_a-vfiprintf.o)
                              d:/00_program_installation/microchip/xc32/v2.10/bin/bin/../../lib/gcc/pic32c/6.2.1/../../../../pic32c/lib/v7e-m/fpv5/hard\libc.a(vfprintf.cdnopsuxX.o) (__sprint_r)
d:/00_program_installation/microchip/xc32/v2.10/bin/bin/../../lib/gcc/pic32c/6.2.1/../../../../pic32c/lib/v7e-m/fpv5/hard\libc.a(lib_a-writer.o)
                              d:/00_program_installation/microchip/xc32/v2.10/bin/bin/../../lib/gcc/pic32c/6.2.1/../../../../pic32c/lib/v7e-m/fpv5/hard\libc.a(lib_a-stdio.o) (_write_r)
d:/00_program_installation/microchip/xc32/v2.10/bin/bin/../../lib/gcc/pic32c/6.2.1/../../../../pic32c/lib/v7e-m/fpv5/hard\libc.a(lib_a-wsetup.o)
                              d:/00_program_installation/microchip/xc32/v2.10/bin/bin/../../lib/gcc/pic32c/6.2.1/../../../../pic32c/lib/v7e-m/fpv5/hard\libc.a(vfprintf.cdnopsuxX.o) (__swsetup_r)
d:/00_program_installation/microchip/xc32/v2.10/bin/bin/../../lib/gcc/pic32c/6.2.1/../../../../pic32c/lib/v7e-m/fpv5/hard\libc.a(lib_a-__atexit.o)
                              d:/00_program_installation/microchip/xc32/v2.10/bin/bin/../../lib/gcc/pic32c/6.2.1/../../../../pic32c/lib/v7e-m/fpv5/hard\libc.a(lib_a-atexit.o) (__register_exitproc)
d:/00_program_installation/microchip/xc32/v2.10/bin/bin/../../lib/gcc/pic32c/6.2.1/../../../../pic32c/lib/v7e-m/fpv5/hard\libc.a(lib_a-closer.o)
                              d:/00_program_installation/microchip/xc32/v2.10/bin/bin/../../lib/gcc/pic32c/6.2.1/../../../../pic32c/lib/v7e-m/fpv5/hard\libc.a(lib_a-stdio.o) (_close_r)
d:/00_program_installation/microchip/xc32/v2.10/bin/bin/../../lib/gcc/pic32c/6.2.1/../../../../pic32c/lib/v7e-m/fpv5/hard\libc.a(lib_a-fclose.o)
                              d:/00_program_installation/microchip/xc32/v2.10/bin/bin/../../lib/gcc/pic32c/6.2.1/../../../../pic32c/lib/v7e-m/fpv5/hard\libc.a(lib_a-findfp.o) (_fclose_r)
d:/00_program_installation/microchip/xc32/v2.10/bin/bin/../../lib/gcc/pic32c/6.2.1/../../../../pic32c/lib/v7e-m/fpv5/hard\libc.a(lib_a-fputwc.o)
                              d:/00_program_installation/microchip/xc32/v2.10/bin/bin/../../lib/gcc/pic32c/6.2.1/../../../../pic32c/lib/v7e-m/fpv5/hard\libc.a(lib_a-vfiprintf.o) (_fputwc_r)
d:/00_program_installation/microchip/xc32/v2.10/bin/bin/../../lib/gcc/pic32c/6.2.1/../../../../pic32c/lib/v7e-m/fpv5/hard\libc.a(lib_a-fvwrite.o)
                              d:/00_program_installation/microchip/xc32/v2.10/bin/bin/../../lib/gcc/pic32c/6.2.1/../../../../pic32c/lib/v7e-m/fpv5/hard\libc.a(lib_a-vfiprintf.o) (__sfvwrite_r)
d:/00_program_installation/microchip/xc32/v2.10/bin/bin/../../lib/gcc/pic32c/6.2.1/../../../../pic32c/lib/v7e-m/fpv5/hard\libc.a(lib_a-localeconv.o)
                              d:/00_program_installation/microchip/xc32/v2.10/bin/bin/../../lib/gcc/pic32c/6.2.1/../../../../pic32c/lib/v7e-m/fpv5/hard\libc.a(lib_a-vfiprintf.o) (_localeconv_r)
d:/00_program_installation/microchip/xc32/v2.10/bin/bin/../../lib/gcc/pic32c/6.2.1/../../../../pic32c/lib/v7e-m/fpv5/hard\libc.a(lib_a-lseekr.o)
                              d:/00_program_installation/microchip/xc32/v2.10/bin/bin/../../lib/gcc/pic32c/6.2.1/../../../../pic32c/lib/v7e-m/fpv5/hard\libc.a(lib_a-stdio.o) (_lseek_r)
d:/00_program_installation/microchip/xc32/v2.10/bin/bin/../../lib/gcc/pic32c/6.2.1/../../../../pic32c/lib/v7e-m/fpv5/hard\libc.a(lib_a-makebuf.o)
                              d:/00_program_installation/microchip/xc32/v2.10/bin/bin/../../lib/gcc/pic32c/6.2.1/../../../../pic32c/lib/v7e-m/fpv5/hard\libc.a(lib_a-wsetup.o) (__smakebuf_r)
d:/00_program_installation/microchip/xc32/v2.10/bin/bin/../../lib/gcc/pic32c/6.2.1/../../../../pic32c/lib/v7e-m/fpv5/hard\libc.a(lib_a-memmove.o)
                              d:/00_program_installation/microchip/xc32/v2.10/bin/bin/../../lib/gcc/pic32c/6.2.1/../../../../pic32c/lib/v7e-m/fpv5/hard\libc.a(lib_a-fvwrite.o) (memmove)
d:/00_program_installation/microchip/xc32/v2.10/bin/bin/../../lib/gcc/pic32c/6.2.1/../../../../pic32c/lib/v7e-m/fpv5/hard\libc.a(lib_a-readr.o)
                              d:/00_program_installation/microchip/xc32/v2.10/bin/bin/../../lib/gcc/pic32c/6.2.1/../../../../pic32c/lib/v7e-m/fpv5/hard\libc.a(lib_a-stdio.o) (_read_r)
d:/00_program_installation/microchip/xc32/v2.10/bin/bin/../../lib/gcc/pic32c/6.2.1/../../../../pic32c/lib/v7e-m/fpv5/hard\libc.a(lib_a-reallocr.o)
                              d:/00_program_installation/microchip/xc32/v2.10/bin/bin/../../lib/gcc/pic32c/6.2.1/../../../../pic32c/lib/v7e-m/fpv5/hard\libc.a(lib_a-fvwrite.o) (_realloc_r)
d:/00_program_installation/microchip/xc32/v2.10/bin/bin/../../lib/gcc/pic32c/6.2.1/../../../../pic32c/lib/v7e-m/fpv5/hard\libc.a(lib_a-wbuf.o)
                              d:/00_program_installation/microchip/xc32/v2.10/bin/bin/../../lib/gcc/pic32c/6.2.1/../../../../pic32c/lib/v7e-m/fpv5/hard\libc.a(lib_a-fputwc.o) (__swbuf_r)
d:/00_program_installation/microchip/xc32/v2.10/bin/bin/../../lib/gcc/pic32c/6.2.1/../../../../pic32c/lib/v7e-m/fpv5/hard\libc.a(lib_a-wcrtomb.o)
                              d:/00_program_installation/microchip/xc32/v2.10/bin/bin/../../lib/gcc/pic32c/6.2.1/../../../../pic32c/lib/v7e-m/fpv5/hard\libc.a(lib_a-fputwc.o) (_wcrtomb_r)
d:/00_program_installation/microchip/xc32/v2.10/bin/bin/../../lib/gcc/pic32c/6.2.1/../../../../pic32c/lib/v7e-m/fpv5/hard\libc.a(lib_a-fstatr.o)
                              d:/00_program_installation/microchip/xc32/v2.10/bin/bin/../../lib/gcc/pic32c/6.2.1/../../../../pic32c/lib/v7e-m/fpv5/hard\libc.a(lib_a-makebuf.o) (_fstat_r)
d:/00_program_installation/microchip/xc32/v2.10/bin/bin/../../lib/gcc/pic32c/6.2.1/../../../../pic32c/lib/v7e-m/fpv5/hard\libc.a(lib_a-isattyr.o)
                              d:/00_program_installation/microchip/xc32/v2.10/bin/bin/../../lib/gcc/pic32c/6.2.1/../../../../pic32c/lib/v7e-m/fpv5/hard\libc.a(lib_a-makebuf.o) (_isatty_r)
d:/00_program_installation/microchip/xc32/v2.10/bin/bin/../../lib/gcc/pic32c/6.2.1/../../../../pic32c/lib/v7e-m/fpv5/hard\libpic32c.a(close.o)
                              d:/00_program_installation/microchip/xc32/v2.10/bin/bin/../../lib/gcc/pic32c/6.2.1/../../../../pic32c/lib/v7e-m/fpv5/hard\libc.a(lib_a-closer.o) (_close)
d:/00_program_installation/microchip/xc32/v2.10/bin/bin/../../lib/gcc/pic32c/6.2.1/../../../../pic32c/lib/v7e-m/fpv5/hard\libpic32c.a(fstat.o)
                              d:/00_program_installation/microchip/xc32/v2.10/bin/bin/../../lib/gcc/pic32c/6.2.1/../../../../pic32c/lib/v7e-m/fpv5/hard\libc.a(lib_a-fstatr.o) (_fstat)
d:/00_program_installation/microchip/xc32/v2.10/bin/bin/../../lib/gcc/pic32c/6.2.1/../../../../pic32c/lib/v7e-m/fpv5/hard\libpic32c.a(isatty.o)
                              d:/00_program_installation/microchip/xc32/v2.10/bin/bin/../../lib/gcc/pic32c/6.2.1/../../../../pic32c/lib/v7e-m/fpv5/hard\libc.a(lib_a-isattyr.o) (_isatty)
d:/00_program_installation/microchip/xc32/v2.10/bin/bin/../../lib/gcc/pic32c/6.2.1/../../../../pic32c/lib/v7e-m/fpv5/hard\libpic32c.a(lseek.o)
                              d:/00_program_installation/microchip/xc32/v2.10/bin/bin/../../lib/gcc/pic32c/6.2.1/../../../../pic32c/lib/v7e-m/fpv5/hard\libc.a(lib_a-lseekr.o) (_lseek)
d:/00_program_installation/microchip/xc32/v2.10/bin/bin/../../lib/gcc/pic32c/6.2.1/../../../../pic32c/lib/v7e-m/fpv5/hard\libpic32c.a(read.o)
                              d:/00_program_installation/microchip/xc32/v2.10/bin/bin/../../lib/gcc/pic32c/6.2.1/../../../../pic32c/lib/v7e-m/fpv5/hard\libc.a(lib_a-readr.o) (_read)
d:/00_program_installation/microchip/xc32/v2.10/bin/bin/../../lib/gcc/pic32c/6.2.1/../../../../pic32c/lib/v7e-m/fpv5/hard\libpic32c.a(sbrk.o)
                              d:/00_program_installation/microchip/xc32/v2.10/bin/bin/../../lib/gcc/pic32c/6.2.1/../../../../pic32c/lib/v7e-m/fpv5/hard\libc.a(lib_a-sbrkr.o) (_sbrk)
d:/00_program_installation/microchip/xc32/v2.10/bin/bin/../../lib/gcc/pic32c/6.2.1/../../../../pic32c/lib/v7e-m/fpv5/hard\libpic32c.a(write.o)
                              d:/00_program_installation/microchip/xc32/v2.10/bin/bin/../../lib/gcc/pic32c/6.2.1/../../../../pic32c/lib/v7e-m/fpv5/hard\libc.a(lib_a-writer.o) (_write)
d:/00_program_installation/microchip/xc32/v2.10/bin/bin/../../lib/gcc/pic32c/6.2.1/../../../../pic32c/lib/v7e-m/fpv5/hard\libpic32c.a(_mon_getc.o)
                              d:/00_program_installation/microchip/xc32/v2.10/bin/bin/../../lib/gcc/pic32c/6.2.1/../../../../pic32c/lib/v7e-m/fpv5/hard\libpic32c.a(read.o) (_mon_getc)
d:/00_program_installation/microchip/xc32/v2.10/bin/bin/../../lib/gcc/pic32c/6.2.1/../../../../pic32c/lib/v7e-m/fpv5/hard\libpic32c.a(_mon_putc.o)
                              d:/00_program_installation/microchip/xc32/v2.10/bin/bin/../../lib/gcc/pic32c/6.2.1/../../../../pic32c/lib/v7e-m/fpv5/hard\libpic32c.a(write.o) (_mon_putc)

Allocating common symbols
Common symbol       size              file

TC0_CH0_CallbackObj
                    0x8               build/default/production/_ext/829342655/plib_tc0.o
errno               0x4               d:/00_program_installation/microchip/xc32/v2.10/bin/bin/../../lib/gcc/pic32c/6.2.1/../../../../pic32c/lib/v7e-m/fpv5/hard\libc.a(lib_a-reent.o)
h_errno             0x4               build/default/production/_ext/1033058136/berkeley_api.o
appData             0x1               build/default/production/_ext/1360937237/app.o
sNetPresData        0x224             build/default/production/_ext/718466696/net_pres.o
sysObj              0x10              build/default/production/_ext/1171490990/initialization.o
sNetPresSockets     0xf0              build/default/production/_ext/718466696/net_pres.o

Microchip PIC32 Memory-Usage Report

ROM Program-Memory Usage
section                    address  length [bytes]      (dec)  Description
-------                 ----------  -------------------------  -----------
.vectors                  0x400000          0x168         360   
.text                     0x400168           0x24          36  App's exec code 
.ARM.exidx                0x40018c            0x8           8   
.dinit                    0x400194         0x11c0        4544   
.text.TCPIP_TCP_Task      0x401354          0xf24        3876   
.text._vfprintf_r_cdnop   0x402278          0x9c0        2496   
.text.TCPIP_STACK_Task    0x402c38          0x5d8        1496   
.text._TcpSend            0x403210          0x5a0        1440   
.text._malloc_r           0x4037b0          0x550        1360   
.text.TCPIP_DHCP_Task     0x403d00          0x4e4        1252   
.text.DRV_PIC32CGMAC_Li   0x4041e4          0x438        1080   
.text._realloc_r          0x40461c          0x34c         844   
.text.TCPIP_STACK_Initi   0x404968          0x2fc         764   
.text.TCPIP_TCP_FifoSiz   0x404c64          0x2fc         764   
.text.__sfvwrite_r        0x404f60          0x2f0         752   
.text                     0x405250          0x2dc         732  App's exec code 
.text.APP_Tasks           0x40552c           0x14          20   
.text                     0x405540          0x2dc         732  App's exec code 
.text.DRV_GMAC_Initiali   0x40581c          0x2c8         712   
.text.TCPIP_ARP_Task      0x405ae4          0x2a4         676   
.text.DRV_PIC32CGMAC_Li   0x405d88          0x298         664   
.text._TCP_Open           0x406020          0x274         628   
.text.TCPIP_UDP_Flush     0x406294          0x22c         556   
.rodata.macPIC32CHwRegD   0x4064c0          0x21c         540   
.text._DNS_Send_Query     0x4066dc          0x218         536   
.text.TCPIP_DNS_ClientI   0x4068f4          0x218         536   
.text.TCPIP_UDP_Options   0x406b0c          0x212         530   
.text.Dummy_Handler       0x406d1e            0x2           2   
.text.TCPIP_UDP_Task      0x406d20          0x1fc         508   
.text._DHCPReceive        0x406f1c          0x1e0         480   
.text.TCPIP_ARP_Initial   0x4070fc          0x1dc         476   
.text._DNS_ProcessPacke   0x4072d8          0x1d8         472   
.text.DRV_MIIM_Tasks      0x4074b0          0x1d4         468   
.text.NET_PRES_Initiali   0x407684          0x1cc         460   
.text._free_r             0x407850          0x1cc         460   
.text.TCPIP_IPV4_Packet   0x407a1c          0x1c4         452   
.text._DHCPSend           0x407be0          0x1b8         440   
.text.TCPIP_DHCP_Initia   0x407d98          0x1ac         428   
.text.TCPIP_IPV4_Task     0x407f44          0x1ac         428   
.text.TCPIP_STACK_Bring   0x4080f0          0x1a4         420   
.text.TCPIP_TCP_ArrayPu   0x408294          0x194         404   
.text._UDPOpen            0x408428          0x190         400   
.text._DHCPOptionHostNa   0x4085b8          0x18c         396   
.text.Reset_Handler       0x408744          0x178         376   
.text.DRV_PIC32CGMAC_Li   0x4088bc          0x178         376   
.text.TCPIP_UDP_Bind      0x408a34          0x164         356   
.text.TCPIP_IPV4_Packet   0x408b98          0x140         320   
.text.__sflush_r          0x408cd8          0x140         320   
.text.closesocket         0x408e18          0x134         308   
.text._TCPIP_HEAP_Free    0x408f4c          0x134         308   
.text.TCPIP_UDP_Deiniti   0x409080          0x134         308   
.text                     0x4091b4          0x134         308  App's exec code 
.text._DNS_RESPONSE_Has   0x4092e8          0x12e         302   
.text.NonMaskableInt_Ha   0x409416            0x2           2   
.text._MACDeinit          0x409418          0x124         292   
.text._DRV_ETHPHY_Setup   0x40953c          0x11c         284   
.text._LoadNetworkConfi   0x409658          0x11a         282   
.text.TCPIP_UDP_Options   0x409772          0x10e         270   
.text.TCPIP_TCP_Options   0x409880          0x106         262   
.text.HardFault_Handler   0x409986            0x2           2   
.rodata._ctype_           0x409988          0x104         260   
.text.TCPIP_DNS_ClientT   0x409a8c          0x100         256   
.text.TCPIP_ARP_EntryRe   0x409b8c           0xfc         252   
.text.TCPIP_Helper_Stri   0x409c88           0xfc         252   
.text.DRV_PIC32CGMAC_Li   0x409d84           0xf8         248   
.text.TCPIP_TCP_Initial   0x409e7c           0xf8         248   
.text.DRV_PIC32CGMAC_Li   0x409f74           0xf2         242   
.text.DebugMonitor_Hand   0x40a066            0x2           2   
.text.__sinit.part.1      0x40a068           0xf0         240   
.text._DRV_MIIM_StartOp   0x40a158           0xec         236   
.text.DRV_GMAC_EventMas   0x40a244           0xec         236   
.text._ARPProbeAddress    0x40a330           0xec         236   
.text.TCPIP_UDP_ArrayGe   0x40a41c           0xec         236   
.text.DRV_GMAC_PacketRx   0x40a508           0xe8         232   
.text.DRV_PIC32CGMAC_Li   0x40a5f0           0xe8         232   
.text.TCPIP_TCP_ArrayGe   0x40a6d8           0xe8         232   
.text._DRV_MIIM_ClientD   0x40a7c0           0xe0         224   
.text._DRV_ETHPHY_Setup   0x40a8a0           0xdc         220   
.text.DRV_EXTPHY_MDIXCo   0x40a97c           0xdc         220   
.rodata.tcpipARPInitDat   0x40aa58           0x28          40   
.text                     0x40aa80           0xdc         220  App's exec code 
.text.DRV_PIC32CGMAC_Li   0x40ab5c           0xd8         216   
.text._DRV_ETHPHY_NegRe   0x40ac34           0xd6         214   
.text._TCPIP_HEAP_Mallo   0x40ad0a           0xd2         210   
.text.TCPIP_TCP_Bind      0x40addc           0xce         206   
.text.MemoryManagement_   0x40aeaa            0x2           2   
.text.BerkeleySocketIni   0x40aeac           0xcc         204   
.text._GetMaxSegSizeOpt   0x40af78           0xcc         204   
.text.MPU_Initialize      0x40b044           0xc8         200   
.text.DRV_ETHPHY_Setup    0x40b10c           0xc8         200   
.text.TIME_PLIB_Callbac   0x40b1d4           0xc8         200   
.text.TCPIP_IPV4_Select   0x40b29c           0xc8         200   
.text.TCPIP_UDP_OpenSer   0x40b364           0xc8         200   
.text.__swsetup_r         0x40b42c           0xc8         200   
.text.memmove             0x40b4f4           0xc8         200   
.text.DRV_GMAC_Tasks      0x40b5bc           0xc4         196   
.text._DHCPProcessRecei   0x40b680           0xc4         196   
.text.TCPIP_TCP_Deiniti   0x40b744           0xc4         196   
.text._DRV_PHY_SMITrans   0x40b808           0xc2         194   
.text.BusFault_Handler    0x40b8ca            0x2           2   
.text.CLK_Initialize      0x40b8cc           0xc0         192   
.text.TCPIP_UDP_Initial   0x40b98c           0xc0         192   
.text.DRV_EXTPHY_MIICon   0x40ba4c           0xbc         188   
.text._Tcpv4TxAckFnc      0x40bb08           0xbc         188   
.text._DRV_ETHPHY_Setup   0x40bbc4           0xb8         184   
.text.TCPIP_HEAP_Create   0x40bc7c           0xb8         184   
.text._TcpCloseSocket     0x40bd34           0xb6         182   
.text.TCPIP_TCP_Options   0x40bdea           0xb2         178   
.text.DRV_GMAC_Tasks_IS   0x40be9c           0xb0         176   
.text.NET_PRES_SocketCl   0x40bf4c           0xb0         176   
.text._TcpSocketSetIdle   0x40bffc           0xb0         176   
.text._UDPv4TxAckFnc      0x40c0ac           0xb0         176   
.text.__swbuf_r           0x40c15c           0xb0         176   
.text.DRV_GMAC_PacketTx   0x40c20c           0xac         172   
.text.NET_PRES_Tasks      0x40c2b8           0xac         172   
.text._TcpDisconnect      0x40c364           0xaa         170   
.text.UsageFault_Handle   0x40c40e            0x2           2   
.text.TCPIP_TCP_ServerO   0x40c410           0xa8         168   
.text.TCPIP_UDP_RemoteB   0x40c4b8           0xa6         166   
.text._DRV_ETHPHY_Clien   0x40c55e            0x2           2   
.text.DRV_MIIM_Setup      0x40c560           0xa4         164   
.text.DRV_MIIM_Operatio   0x40c604           0xa4         164   
.text._ARPSendIfPkt       0x40c6a8           0xa4         164   
.text.__register_exitpr   0x40c74c           0xa4         164   
.text._DRV_ETHPHY_Setup   0x40c7f0           0xa0         160   
.text._DRV_ETHPHY_NegCo   0x40c890           0xa0         160   
.text.NET_PRES_SocketDi   0x40c930           0xa0         160   
.text._ARPDeleteResourc   0x40c9d0           0xa0         160   
.text.TCPIP_STACK_KillS   0x40ca70           0xa0         160   
.text._UDPv4AllocateSkt   0x40cb10           0xa0         160   
.text                     0x40cbb0           0xa0         160  App's exec code 
.text.__fputwc            0x40cc50           0xa0         160   
.text._DRV_ETHPHY_Setup   0x40ccf0           0x9e         158   
.text.TCPIP_UDP_Disconn   0x40cd8e           0x9c         156   
.text.DRV_MIIM_Reinitia   0x40ce2a            0x2           2   
.text.memset              0x40ce2c           0x9c         156   
.text.SYS_TIME_TimerCre   0x40cec8           0x98         152   
.text.TCPIP_IPV4_ArpHan   0x40cf60           0x98         152   
.text._UDPsetPacketInfo   0x40cff8           0x94         148   
.text.__pic32c_data_ini   0x40d08c           0x94         148   
.text._malloc_trim_r      0x40d120           0x94         148   
.text._DHCPEnable         0x40d1b4           0x90         144   
.text.TCPIP_ARP_IsResol   0x40d244           0x8c         140   
.text._DHCPSetLeaseTime   0x40d2d0           0x8c         140   
.text._DRV_ETHPHY_Reset   0x40d35c           0x88         136   
.text._DHCPPacketFilter   0x40d3e4           0x88         136   
.text.TCPIP_IPV4_DeInit   0x40d46c           0x88         136   
.text._OAHashFindBkt      0x40d4f4           0x88         136   
.text.__smakebuf_r        0x40d57c           0x88         136   
.text.DRV_MIIM_Open       0x40d604           0x84         132   
.text.DRV_PIC32CGMAC_Li   0x40d688           0x84         132   
.text._MacTxDiscardQueu   0x40d70c           0x82         130   
.text.DRV_GMAC_Reinitia   0x40d78e            0x2           2   
.text.DRV_PIC32CGMAC_Li   0x40d790           0x80         128   
.text.timer_addToList     0x40d810           0x80         128   
.text.BerkeleySocketDeI   0x40d890           0x80         128   
.text._DHCPClientClose    0x40d910           0x80         128   
.text.TCPIP_Helper_Pack   0x40d990           0x80         128   
.text.__sprint_r.part.0   0x40da10           0x80         128   
.text._fclose_r           0x40da90           0x80         128   
.rodata.DRV_ETHPHY_OBJE   0x40db10           0x7c         124   
.text.TCPIP_Helper_Stri   0x40db8c           0x7a         122   
.text._TCPIP_HEAP_Buffe   0x40dc06            0x2           2   
.text._DRV_ETHPHY_NegCo   0x40dc08           0x78         120   
.text._MacTxPendingPack   0x40dc80           0x78         120   
.text._DHCPCleanup        0x40dcf8           0x78         120   
.text._DNS_ValidateIf     0x40dd70           0x78         120   
.text._DRV_GMAC_LinkSta   0x40dde8           0x76         118   
.text._DRV_ETHPHY_NegRe   0x40de5e           0x74         116   
.text.DRV_GMAC_EventAck   0x40ded4           0x74         116   
.text.DRV_PIC32CGMAC_Li   0x40df48           0x74         116   
.text.timer_removeFromL   0x40dfbc           0x74         116   
.text._ARPUpdateEntry     0x40e030           0x74         116   
.text.TCPIP_ARP_EntryRe   0x40e0a4           0x74         116   
.text.TCPIP_DHCP_Connec   0x40e118           0x74         116   
.text.TCPIP_STACK_Bring   0x40e18c           0x74         116   
.text._TCPIP_PKT_Packet   0x40e200           0x74         116   
.text.TCPIP_PKT_DataSeg   0x40e274           0x72         114   
.text.DRV_ETHPHY_Open     0x40e2e8           0x70         112   
.text._DRV_ETHPHY_Reset   0x40e358           0x70         112   
.text.DRV_MIIM_Initiali   0x40e3c8           0x70         112   
.text.DRV_GMAC_LibDescr   0x40e438           0x70         112   
.text.SYS_TIME_Initiali   0x40e4a8           0x70         112   
.text.TCPIP_IPV4_Initia   0x40e518           0x70         112   
.text._TCPIPStackModule   0x40e588           0x70         112   
.text.TCPIP_TCP_SocketI   0x40e5f8           0x6e         110   
.text                     0x40e668           0x6c         108  App's exec code 
.text.TCPIP_BSD_Task      0x40e6d4           0x6c         108   
.text._TcpCleanup         0x40e740           0x6c         108   
.text.__sbprintf          0x40e7ac           0x6c         108   
.text._DNS_AddSelection   0x40e818           0x6a         106   
.text.TCPIP_Helper_Pack   0x40e882           0x6a         106   
.text.SYS_Initialize      0x40e8ec           0x68         104   
.rodata                   0x40e954           0x68         104  Read-only const 
.text._DRV_GMAC_LinkSta   0x40e9bc           0x68         104   
.text.TCPIP_OAHASH_Entr   0x40ea24           0x68         104   
.text.TCPIP_OAHASH_Entr   0x40ea8c           0x68         104   
.text._TcpSwapHeader      0x40eaf4           0x68         104   
.text._TcpClientSocketC   0x40eb5c           0x68         104   
.text.TCPIP_Helper_Calc   0x40ebc4           0x66         102   
.text._DRV_ETHPHY_Setup   0x40ec2a           0x64         100   
.text._TCPIPStackInsert   0x40ec90           0x64         100   
.text.strncpy             0x40ecf4           0x64         100   
.text.TCPIP_ARP_EntryGe   0x40ed58           0x62          98   
.text._TCPIP_StackSyncF   0x40edba           0x62          98   
.text.TCPIP_TCP_ArrayPe   0x40ee1c           0x62          98   
.text.TCPIP_DNS_ClientD   0x40ee80           0x60          96   
.text.TCPIP_UDP_SocketI   0x40eee0           0x60          96   
.text._calloc_r           0x40ef40           0x60          96   
.text.memcmp              0x40efa0           0x60          96   
.text.DRV_ETHPHY_Initia   0x40f000           0x5c          92   
.text.SYS_TIME_TimerDes   0x40f05c           0x5c          92   
.text._TCPIP_HEAP_MaxSi   0x40f0b8           0x5c          92   
.text._TCPIPStackIpAddF   0x40f114           0x5c          92   
.text.__swhatbuf_r        0x40f170           0x5c          92   
.text._DHCPOptionProces   0x40f1cc           0x5a          90   
.text.TCPIP_UDP_BcastIP   0x40f226           0x5a          90   
.text.DRV_ETHPHY_Vendor   0x40f280           0x58          88   
.text.DRV_ETHPHY_Vendor   0x40f2d8           0x58          88   
.text._DRV_MIIM_Release   0x40f330           0x58          88   
.text.DRV_GMAC_Paramete   0x40f388           0x58          88   
.rodata.DRV_GMAC_Object   0x40f3e0           0x58          88   
.text._DNS_Enable         0x40f438           0x58          88   
.text._TCPIPStackAnyNet   0x40f490           0x58          88   
.text._DRV_ETHPHY_LinkS   0x40f4e8           0x56          86   
.text.DRV_GMAC_Statisti   0x40f53e           0x56          86   
.text.TCPIP_ARP_Probe     0x40f594           0x56          86   
.rodata.netPresTransObj   0x40f5ec           0x54          84   
.rodata.netPresTransObj   0x40f640           0x54          84   
.rodata.netPresTransObj   0x40f694           0x54          84   
.rodata.netPresTransObj   0x40f6e8           0x54          84   
.rodata.tcpipMACPIC32CI   0x40f73c           0x54          84   
.text.PIO_Initialize      0x40f790           0x54          84   
.text._DRV_ETHPHY_NegCo   0x40f7e4           0x54          84   
.text.DRV_MIIM_Operatio   0x40f838           0x54          84   
.text._ARPNotifyClients   0x40f88c           0x54          84   
.text._DHCPOptionWriteS   0x40f8e0           0x54          84   
.text._DNS_DeleteHash     0x40f934           0x54          84   
.rodata.TCPIP_STACK_MOD   0x40f988           0x54          84   
.text._fwalk_reent        0x40f9dc           0x54          84   
.text._wcrtomb_r          0x40fa30           0x54          84   
.text._TcpAbort           0x40fa84           0x52          82   
.text.TCPIP_UDP_PutIsRe   0x40fad6           0x52          82   
.text._DRV_MIIM_GetClie   0x40fb28           0x50          80   
.text._DHCPOptionWriteI   0x40fb78           0x50          80   
.text.TCPIP_DNS_OAHASH_   0x40fbc8           0x50          80   
.text._TCPIPStackModule   0x40fc18           0x50          80   
.text.__libc_init_array   0x40fc68           0x50          80   
.text._vsnprintf_cdnops   0x40fcb8           0x50          80   
.text.TCPIP_Helper_Form   0x40fd08           0x4e          78   
.text.TCPIP_TCP_Destina   0x40fd56           0x4e          78   
.text.TCPIP_TCP_RemoteB   0x40fda4           0x4e          78   
.text._DRV_GMAC_LinkSta   0x40fdf2           0x4c          76   
.text.TCPIP_IPV4_Cleanu   0x40fe40           0x4c          76   
.text._TCPIP_MacEventCB   0x40fe8c           0x4c          76   
.text._UDPClose           0x40fed8           0x4c          76   
.text.TCPIP_UDP_Destina   0x40ff24           0x4a          74   
.rodata.TCPIP_STACK_MOD   0x40ff70           0x48          72   
.text._DRV_ETHPHY_Setup   0x40ffb8           0x48          72   
.text.DRV_ETHPHY_Vendor   0x410000           0x48          72   
.text.DRV_GMAC_Register   0x410048           0x48          72   
.text.DRV_GMAC_Process    0x410090           0x48          72   
.text.TCPIP_ARP_Deiniti   0x4100d8           0x48          72   
.rodata._DHCPOptProcTbl   0x410120           0x48          72   
.text._TCPIPStackSignal   0x410168           0x48          72   
.text._TCPSendWinIncUpd   0x4101b0           0x48          72   
.text.TCPIP_UDP_Close     0x4101f8           0x48          72   
.text._XtlEventsTcp2Eth   0x410240           0x46          70   
.text.TCPIP_STACK_Addre   0x410286           0x46          70   
.text.TCPIP_UDP_ArrayPu   0x4102cc           0x46          70   
.text.SYS_INT_SourceDis   0x410314           0x44          68   
.text.DRV_MIIM_Register   0x410358           0x44          68   
.text.Helper_SingleList   0x41039c           0x44          68   
.text.DRV_GMAC_RxFilter   0x4103e0           0x44          68   
.text._DHCPSetTimeout     0x410424           0x44          68   
.text._DNS_CleanCacheEn   0x410468           0x44          68   
.text.hexatob             0x4104ac           0x44          68   
.text.TCPIP_Helper_Sing   0x4104f0           0x44          68   
.text.TCPIP_STACK_NetBy   0x410534           0x44          68   
.text._UDPSetNewRxPacke   0x410578           0x44          68   
.text._DRV_GMAC_LinkSta   0x4105bc           0x42          66   
.text._DHCPOptionClient   0x4105fe           0x42          66   
.text._TcpSocketSetSour   0x410640           0x42          66   
.text._DRV_ETHPHY_NegRe   0x410682           0x40          64   
.text._DRV_ETHPHY_Setup   0x4106c2           0x40          64   
.rodata.DRV_MIIM_OBJECT   0x410704           0x40          64   
.text._DHCPSetRunFail     0x410744           0x40          64   
.text.TCPIP_DHCP_Deinit   0x410784           0x40          64   
.text.TCPIP_DNS_RemoveE   0x4107c4           0x40          64   
.text.TCPIP_Helper_Prot   0x410804           0x40          64   
.rodata                   0x410844           0x40          64  Read-only const 
.text._TCP_PortIsAvaila   0x410884           0x40          64   
.text._UDPIsAvailablePo   0x4108c4           0x40          64   
.text.TCPIP_UDP_SocketN   0x410904           0x40          64   
.text.TCPIP_UDP_SourceI   0x410944           0x40          64   
.text.rand                0x410984           0x40          64   
.text._DHCPOptionProces   0x4109c4           0x3e          62   
.text._DNSDiscardName     0x410a02           0x3e          62   
.text._TCPIP_HEAP_Delet   0x410a40           0x3e          62   
.text._TCPSetHalfFlushF   0x410a7e           0x3e          62   
.text.TCPIP_UDP_TxOffse   0x410abc           0x3e          62   
.text.NVIC_Initialize     0x410afc           0x3c          60   
.text._DRV_ETHPHY_Setup   0x410b38           0x3c          60   
.text._DRV_ETHPHY_NegCo   0x410b74           0x3c          60   
.text._DRV_MIIM_GetOpDc   0x410bb0           0x3c          60   
.text.DRV_GMAC_Open       0x410bec           0x3c          60   
.text.SYS_TIME_TimerSta   0x410c28           0x3c          60   
.text.SYS_TIME_Callback   0x410c64           0x3c          60   
.text._DHCPOptionProces   0x410ca0           0x3c          60   
.text._DHCPNotifyClient   0x410cdc           0x3c          60   
.text.TCPIP_Helper_Prot   0x410d18           0x3c          60   
.text.TCPIP_Helper_Prot   0x410d54           0x3c          60   
.text._TCPIP_PKT_Packet   0x410d90           0x3c          60   
.text._TcpSocketKill      0x410dcc           0x3c          60   
.text._TCP_EphemeralPor   0x410e08           0x3c          60   
.text.TCPIP_TCP_Close     0x410e44           0x3c          60   
.text.TCPIP_TCP_FifoTxF   0x410e80           0x3c          60   
.text._UDPAllocateEphem   0x410ebc           0x3c          60   
.text.TCPIP_UDP_OpenCli   0x410ef8           0x3c          60   
.text.__swrite            0x410f34           0x3c          60   
.text._write              0x410f70           0x3c          60   
.text._DRV_MIIM_GetObje   0x410fac           0x3a          58   
.text._MacPacketAck       0x410fe6           0x3a          58   
.text.timerHardwarePeri   0x411020           0x3a          58   
.text._DHCPOptionProces   0x41105a           0x3a          58   
.text.TCPIP_Helper_Prot   0x411094           0x3a          58   
.rodata.TCPIP_HOSTS_CON   0x4110d0           0x38          56   
.text.DRV_ETHPHY_LinkSt   0x411108           0x38          56   
.text._DRV_PHY_NegCompl   0x411140           0x38          56   
.text._DRV_ETHPHY_LinkS   0x411178           0x38          56   
.text.DRV_MIIM_Deregist   0x4111b0           0x38          56   
.text._TCPIP_Helper_Sec   0x4111e8           0x38          56   
.text._TCPIPStackModule   0x411220           0x38          56   
.text.TCPIP_PKT_PacketM   0x411258           0x38          56   
.text._TCPSetSourceAddr   0x411290           0x38          56   
.text.DRV_ETHPHY_Negoti   0x4112c8           0x36          54   
.text.TCPIP_UDP_RxOffse   0x4112fe           0x36          54   
.text.DRV_MIIM_Deinitia   0x411334           0x34          52   
.text._ARPSetEntry        0x411368           0x34          52   
.text.TCPIP_ARP_HashEnt   0x41139c           0x34          52   
.text.TCPIP_ARP_Handler   0x4113d0           0x34          52   
.text.TCPIP_DNS_OAHASH_   0x411404           0x34          52   
.text.TCPIP_Helper_Stri   0x411438           0x34          52   
.text.__libc_fini_array   0x41146c           0x34          52   
.text._DNS_NetIsValid     0x4114a0           0x32          50   
.text.TCPIP_Helper_Prot   0x4114d2           0x32          50   
.text.SYS_TIME_Counter6   0x411504           0x30          48   
.text.TCPIP_IPV4_CheckP   0x411534           0x30          48   
.text.IPv4RegisterFilte   0x411564           0x30          48   
.text.fnv_32_hash         0x411594           0x30          48   
.text.TCPIP_OAHASH_Entr   0x4115c4           0x30          48   
.text.TCPIP_PKT_Initial   0x4115f4           0x30          48   
.text._TCPSocketTxFreeS   0x411624           0x30          48   
.text                     0x411654           0x30          48  App's exec code 
.text.DRV_ETHPHY_Reset    0x411684           0x2e          46   
.text.DRV_ETHPHY_Negoti   0x4116b2           0x2e          46   
.text._ARPRemoveEntry     0x4116e0           0x2e          46   
.text._DHCPOptionProces   0x41170e           0x2e          46   
.text._DHCPOptionProces   0x41173c           0x2e          46   
.text._DHCPOptionProces   0x41176a           0x2e          46   
.text.TCPIP_STACK_DNSSe   0x411798           0x2e          46   
.text.TCPIP_TCP_Connect   0x4117c6           0x2e          46   
.text.TCPIP_STACK_Init    0x4117f4           0x2c          44   
.text._DRV_ETHPHY_Clien   0x411820           0x2c          44   
.text.DRV_ETHPHY_Restar   0x41184c           0x2c          44   
.text._DRV_ETHPHY_Clien   0x411878           0x2c          44   
.text._DRV_ETHPHY_Clien   0x4118a4           0x2c          44   
.text._DRV_ETHPHY_Clien   0x4118d0           0x2c          44   
.text._DRV_ETHPHY_Clien   0x4118fc           0x2c          44   
.text._DRV_ETHPHY_Clien   0x411928           0x2c          44   
.text._DRV_ETHPHY_Setup   0x411954           0x2c          44   
.text._DRV_GMAC_LinkSta   0x411980           0x2c          44   
.text._DNSClientCleanup   0x4119ac           0x2c          44   
.text.TCPIP_STACK_Addre   0x4119d8           0x2c          44   
.text.TCPIP_STACK_IsBca   0x411a04           0x2c          44   
.text.TCPIP_TCP_SignalH   0x411a30           0x2c          44   
.text.TCPIP_UDP_IsConne   0x411a5c           0x2c          44   
.text.__ascii_mbtowc      0x411a88           0x2c          44   
.text._fflush_r           0x411ab4           0x2c          44   
.text._write_r            0x411ae0           0x2c          44   
.text._lseek_r            0x411b0c           0x2c          44   
.text._read_r             0x411b38           0x2c          44   
.text._sbrk               0x411b64           0x2c          44   
.text._DRV_GMAC_LinkSta   0x411b90           0x2a          42   
.text.TCPIP_TCP_WasRese   0x411bba           0x2a          42   
.text._UDPFreeTxResourc   0x411be4           0x2a          42   
.text._DRV_ETHPHY_Clien   0x411c0e           0x28          40   
.rodata._DRV_PHY_Client   0x411c38           0x28          40   
.text.DRV_MIIM_Status     0x411c60           0x28          40   
.text.DRV_GMAC_ConfigGe   0x411c88           0x28          40   
.text.DRV_GMAC_LinkChec   0x411cb0           0x28          40   
.text.time_resourceUnlo   0x411cd8           0x28          40   
.text.TC0_CH0_TimerInit   0x411d00           0x28          40   
.text._DHCPOptionWriteP   0x411d28           0x28          40   
.text._DNSGetData         0x411d50           0x28          40   
.text._TCPIP_STACK_Tick   0x411d78           0x28          40   
.text.TCPIP_STACK_NetIs   0x411da0           0x28          40   
.text._TCPIPStackModule   0x411dc8           0x28          40   
.text._TCPIP_PKT_Socket   0x411df0           0x28          40   
.text._TcpSocketChk       0x411e18           0x28          40   
.text._TcpFlush           0x411e40           0x28          40   
.text._UDPSocketDcpt      0x411e68           0x28          40   
.text.TCPIP_UDP_GetIsRe   0x411e90           0x28          40   
.text.TCPIP_UDP_SignalH   0x411eb8           0x28          40   
.rodata                   0x411ee0           0x28          40  Read-only const 
.text._fputwc_r           0x411f08           0x28          40   
.text._fstat_r            0x411f30           0x28          40   
.text._read               0x411f58           0x28          40   
.text.TCPIP_Helper_Prot   0x411f80           0x26          38   
.text.TCPIP_STACK_DNSSe   0x411fa6           0x26          38   
.text.TCPIP_STACK_Addre   0x411fcc           0x26          38   
.text.TCPIP_TCP_Discard   0x411ff2           0x26          38   
.text._UDPFreeRxQueue     0x412018           0x26          38   
.text.DRV_ETHPHY_HWConf   0x412040           0x24          36   
.text._DRV_ETHPHY_NegRe   0x412064           0x24          36   
.text._DRV_ETHPHY_NegRe   0x412088           0x24          36   
.text.DRV_PIC32CGMAC_Li   0x4120ac           0x24          36   
.text.TC0_CH0_Interrupt   0x4120d0           0x24          36   
.text._ARPAllocateTxPac   0x4120f4           0x24          36   
.text._ARPRemoveCacheEn   0x412118           0x24          36   
.text.TCPIP_ARP_Handler   0x41213c           0x24          36   
.text._DHCPOptionProces   0x412160           0x24          36   
.text._DHCPOptionWriteM   0x412184           0x24          36   
.text.Ipv4DeRegisterFil   0x4121a8           0x24          36   
.rodata._tcpip_heap_obj   0x4121cc           0x24          36   
.text.TCPIP_OAHASH_Init   0x4121f0           0x24          36   
.text.TCPIP_STACK_IPAdd   0x412214           0x24          36   
.text._TCPIPStackSetCon   0x412238           0x24          36   
.text._TCPIPStackHandle   0x41225c           0x24          36   
.text.TCPIP_TCP_Flush     0x412280           0x24          36   
.text.TCPIP_TCP_SignalH   0x4122a4           0x24          36   
.text.TCPIP_UDP_SignalH   0x4122c8           0x24          36   
.text._sbrk_r             0x4122ec           0x24          36   
.text.__sread             0x412310           0x24          36   
.text._close_r            0x412334           0x24          36   
.text._isatty_r           0x412358           0x24          36   
.text.DRV_ETHPHY_Reinit   0x41237c           0x22          34   
.text.DRV_MIIM_Close      0x41239e           0x22          34   
.text._TCPIP_HEAP_LastE   0x4123c0           0x22          34   
.text.TCPIP_TCP_IsConne   0x4123e2           0x22          34   
.text._UDPTxPktValid      0x412404           0x22          34   
.text.TCPIP_UDP_Discard   0x412426           0x22          34   
.rodata.netPresCfgs       0x412448           0x20          32   
.rodata.tcpipPhyInitDat   0x412468           0x20          32   
.text.SYS_Tasks           0x412488           0x20          32   
.text.DRV_ETHPHY_Tasks    0x4124a8           0x20          32   
.text.DRV_ETHPHY_Close    0x4124c8           0x20          32   
.text._DRV_ETHPHY_Clien   0x4124e8           0x20          32   
.text._DRV_ETHPHY_NegRe   0x412508           0x20          32   
.text._DRV_ETHPHY_Setup   0x412528           0x20          32   
.text.Helper_SingleList   0x412548           0x20          32   
.text.DRV_PIC32CGMAC_Li   0x412568           0x20          32   
.text.DRV_PIC32CGMAC_Si   0x412588           0x20          32   
.text._SwapARPPacket      0x4125a8           0x20          32   
.text.TCPIP_DNS_OAHASH_   0x4125c8           0x20          32   
.text.TCPIP_Helper_Sing   0x4125e8           0x20          32   
.rodata.TCPIP_MAC_POWER   0x412608           0x20          32   
.text.TCPIP_STACK_Index   0x412628           0x20          32   
.rodata                   0x412648           0x20          32  Read-only const 
.text.TCPIP_Notificatio   0x412668           0x20          32   
.text.TCPIP_UDP_Destina   0x412688           0x20          32   
.text.__sseek             0x4126a8           0x20          32   
.text.DRV_ETHPHY_Client   0x4126c8           0x1e          30   
.text.TCPIP_Helper_Prot   0x4126e6           0x1e          30   
.text.TCPIP_STACK_NetAd   0x412704           0x1e          30   
.text.TCPIP_STACK_Netwo   0x412722           0x1e          30   
.text._TCPIP_PKT_Packet   0x412740           0x1e          30   
.text.TCPIP_PKT_Payload   0x41275e           0x1e          30   
.text._TCPIsGetReady      0x41277c           0x1e          30   
.rodata._DRV_PHY_SetupP   0x41279c           0x1c          28   
.text._ARPTxAckFnc        0x4127b8           0x1c          28   
.rodata._DHCPOptWriteTb   0x4127d4           0x1c          28   
.text.TCPIP_IPV4_MaxDat   0x4127f0           0x1c          28   
.text._TCPIP_HEAP_FreeS   0x41280c           0x1c          28   
.text._TCPIP_HEAP_Callo   0x412828           0x1c          28   
.text.TCPIP_Helper_Sing   0x412844           0x1c          28   
.text.TCPIP_Helper_Prot   0x412860           0x1c          28   
.text._TCPIPSignalEntry   0x41287c           0x1c          28   
.text.TCPIP_Notificatio   0x412898           0x1c          28   
.text.TCPIP_Notificatio   0x4128b4           0x1c          28   
.text.SYS_TMR_CallbackP   0x4128d0           0x1c          28   
.text.TCPIP_UDP_TxPoint   0x4128ec           0x1c          28   
.text.__locale_mb_cur_m   0x412908           0x1c          28   
.text.__locale_ctype_pt   0x412924           0x1c          28   
.text.__ascii_wctomb      0x412940           0x1c          28   
.text._snprintf_cdnopsu   0x41295c           0x1c          28   
.text._DRV_ETHPHY_NegCo   0x412978           0x1a          26   
.text.Helper_SingleList   0x412992           0x1a          26   
.text.DRV_MIIM_Read       0x4129ac           0x1a          26   
.text.DRV_MIIM_Write      0x4129c6           0x1a          26   
.text.DRV_MIIM_Scan       0x4129e0           0x1a          26   
.text.DRV_PIC32CGMAC_Si   0x4129fa           0x1a          26   
.text.TCPIP_Helper_Sing   0x412a14           0x1a          26   
.text.TCPIP_STACK_NetIs   0x412a2e           0x1a          26   
.text.TCPIP_TCP_ClientO   0x412a48           0x1a          26   
.text.TCPIP_TCP_Disconn   0x412a62           0x1a          26   
.text.TCPIP_TCP_PutIsRe   0x412a7c           0x1a          26   
.rodata.tcpipDNSClientI   0x412a98           0x18          24   
.text.DRV_ETHPHY_PhyAdd   0x412ab0           0x18          24   
.text._DRV_PHY_SMIReadS   0x412ac8           0x18          24   
.text._DRV_PHY_SMIWrite   0x412ae0           0x18          24   
.text._DRV_ETHPHY_Reset   0x412af8           0x18          24   
.rodata._DRV_PHY_NegCom   0x412b10           0x18          24   
.text.DRV_PIC32CGMAC_Si   0x412b28           0x18          24   
.text.TCPIP_ARP_HashKey   0x412b40           0x18          24   
.text.TCPIP_HEAP_Create   0x412b58           0x18          24   
.text.TCPIP_OAHASH_Entr   0x412b70           0x18          24   
.text.TCPIP_STACK_NetAd   0x412b88           0x18          24   
.text.TCPIP_STACK_NetMa   0x412ba0           0x18          24   
.text.TCPIP_STACK_NetMA   0x412bb8           0x18          24   
.text._TCPIPStackModule   0x412bd0           0x18          24   
.rodata.TCPIP_FRAME_PRO   0x412be8           0x18          24   
.text._vfprintf_cdnopsu   0x412c00           0x18          24   
.text.DRV_ETHPHY_Vendor   0x412c18           0x16          22   
.text.DRV_MIIM_ClientSt   0x412c2e           0x16          22   
.text._DHCPSocketRxSign   0x412c44           0x16          22   
.text._DNSSocketRxSigna   0x412c5a           0x16          22   
.text._TCPIP_HEAP_Size    0x412c70           0x16          22   
.text._TCPIP_HEAP_HighW   0x412c86           0x16          22   
.text.TCPIP_Helper_TCPS   0x412c9c           0x16          22   
.text.TCPIP_Helper_UDPS   0x412cb2           0x16          22   
.text._TCPIPStackPacket   0x412cc8           0x16          22   
.text._TCP_TxPktValid     0x412cde           0x16          22   
.text._DRV_ETHPHY_NegRe   0x412cf4           0x14          20   
.text._DRV_ETHPHY_NegRe   0x412d08           0x14          20   
.text._DRV_ETHPHY_NegCo   0x412d1c           0x14          20   
.text._DRV_ETHPHY_LinkS   0x412d30           0x14          20   
.rodata._DRV_PHY_NegRes   0x412d44           0x14          20   
.rodata._DRV_GMAC_LinkS   0x412d58           0x14          20   
.text.time_resourceLock   0x412d6c           0x14          20   
.text._DHCPOptionWriteE   0x412d80           0x14          20   
.text.TCPIP_OAHASH_Entr   0x412d94           0x14          20   
.text._UDPUpdatePacketL   0x412da8           0x14          20   
.rodata                   0x412dbc           0x14          20  Read-only const 
.text.register_fini       0x412dd0           0x14          20   
.text.__sprint_r          0x412de4           0x14          20   
.text.SYS_INT_Disable     0x412df8           0x12          18   
.text.DRV_GMAC_Status     0x412e0a           0x12          18   
.text.DRV_GMAC_Close      0x412e1c           0x12          18   
.text.DRV_GMAC_Deinitia   0x412e2e           0x12          18   
.text.TCPIP_TCP_GetIsRe   0x412e40           0x12          18   
.rodata.tcpipDHCPInitDa   0x412e54           0x10          16   
.rodata._DRV_PHY_SetupP   0x412e64           0x10          16   
.rodata.DRV_ETHPHY_OBJE   0x412e74           0x10          16   
.text.TCPIP_Notificatio   0x412e84           0x10          16   
.text.sy_time_h2_adapte   0x412e94           0x10          16   
.text.calloc              0x412ea4           0x10          16   
.text.malloc              0x412eb4           0x10          16   
.text.free                0x412ec4           0x10          16   
.rodata.blanks.8328       0x412ed4           0x10          16   
.rodata.zeroes.8329       0x412ee4           0x10          16   
.text.main                0x412ef4            0xe          14   
.text.DRV_ETHPHY_Status   0x412f02            0xe          14   
.text.DRV_ETHPHY_Client   0x412f10            0xe          14   
.text.DRV_ETHPHY_Client   0x412f1e            0xe          14   
.text.DRV_ETHPHY_Vendor   0x412f2c            0xe          14   
.text.TCPIP_Helper_Chec   0x412f3a            0xe          14   
.text.TCPIP_STACK_NetIx   0x412f48            0xe          14   
.text._TCPIPStackSignal   0x412f56            0xe          14   
.text.APP_Initialize      0x412f64            0xc          12   
.text.DRV_ETHPHY_Deinit   0x412f70            0xc          12   
.rodata._DRV_PHY_LinkSt   0x412f7c            0xc          12   
.rodata._DRV_PHY_NegRes   0x412f88            0xc          12   
.rodata._DRV_PHY_ResetP   0x412f94            0xc          12   
.text._DRV_GMAC_GetTxOc   0x412fa0            0xc          12   
.text._DRV_GMAC_GetTxOc   0x412fac            0xc          12   
.text._DRV_GMAC_GetTxFr   0x412fb8            0xc          12   
.text._DRV_GMAC_GetTxBC   0x412fc4            0xc          12   
.text._DRV_GMAC_GetTxMC   0x412fd0            0xc          12   
.text._DRV_GMAC_GetTxPa   0x412fdc            0xc          12   
.text._DRV_GMAC_GetTx64   0x412fe8            0xc          12   
.text._DRV_GMAC_GetTx12   0x412ff4            0xc          12   
.text._DRV_GMAC_GetTx25   0x413000            0xc          12   
.text._DRV_GMAC_GetTx51   0x41300c            0xc          12   
.text._DRV_GMAC_GetTx10   0x413018            0xc          12   
.text._DRV_GMAC_GetTx15   0x413024            0xc          12   
.text._DRV_GMAC_GetTxGT   0x413030            0xc          12   
.text._DRV_GMAC_GetTxUn   0x41303c            0xc          12   
.text._DRV_GMAC_GetTxSi   0x413048            0xc          12   
.text._DRV_GMAC_GetTxMu   0x413054            0xc          12   
.text._DRV_GMAC_GetTxEx   0x413060            0xc          12   
.text._DRV_GMAC_GetTxLa   0x41306c            0xc          12   
.text._DRV_GMAC_GetTxDe   0x413078            0xc          12   
.text._DRV_GMAC_GetTxCS   0x413084            0xc          12   
.text._DRV_GMAC_GetRxOc   0x413090            0xc          12   
.text._DRV_GMAC_GetRxOc   0x41309c            0xc          12   
.text._DRV_GMAC_GetRxFr   0x4130a8            0xc          12   
.text._DRV_GMAC_GetRxBC   0x4130b4            0xc          12   
.text._DRV_GMAC_GetRxMC   0x4130c0            0xc          12   
.text._DRV_GMAC_GetRxPa   0x4130cc            0xc          12   
.text._DRV_GMAC_GetRx64   0x4130d8            0xc          12   
.text._DRV_GMAC_GetRx12   0x4130e4            0xc          12   
.text._DRV_GMAC_GetRx25   0x4130f0            0xc          12   
.text._DRV_GMAC_GetRx51   0x4130fc            0xc          12   
.text._DRV_GMAC_GetRx10   0x413108            0xc          12   
.text._DRV_GMAC_GetRx15   0x413114            0xc          12   
.text._DRV_GMAC_GetRxGT   0x413120            0xc          12   
.text._DRV_GMAC_GetRxUn   0x41312c            0xc          12   
.text._DRV_GMAC_GetRxOv   0x413138            0xc          12   
.text._DRV_GMAC_GetRxJa   0x413144            0xc          12   
.text._DRV_GMAC_GetRxFC   0x413150            0xc          12   
.text._DRV_GMAC_GetRxLF   0x41315c            0xc          12   
.text._DRV_GMAC_GetRxSy   0x413168            0xc          12   
.text._DRV_GMAC_GetRxAl   0x413174            0xc          12   
.text._DRV_GMAC_GetRxRe   0x413180            0xc          12   
.text._DRV_GMAC_GetRxOv   0x41318c            0xc          12   
.text._DRV_GMAC_GetRxIP   0x413198            0xc          12   
.text._DRV_GMAC_GetRxTC   0x4131a4            0xc          12   
.text._DRV_GMAC_GetRxUD   0x4131b0            0xc          12   
.rodata                   0x4131bc            0xc          12  Read-only const 
.text.SYS_TIME_Frequenc   0x4131c8            0xc          12   
.text.TC0_CH0_TimerStar   0x4131d4            0xc          12   
.text.TC0_CH0_TimerStop   0x4131e0            0xc          12   
.text.TC0_CH0_TimerPeri   0x4131ec            0xc          12   
.text.TC0_CH0_TimerCoun   0x4131f8            0xc          12   
.text.TC0_CH0_TimerCall   0x413204            0xc          12   
.text.TCPIP_ARP_HashKey   0x413210            0xc          12   
.text.TCPIP_DNS_OAHASH_   0x41321c            0xc          12   
.text.TCPIP_STACK_NetDe   0x413228            0xc          12   
.text.TCPIP_STACK_Numbe   0x413234            0xc          12   
.rodata.TCPIP_STACK_IF_   0x413240            0xc          12   
.text.TCPIP_PKT_Deiniti   0x41324c            0xc          12   
.text.__errno             0x413258            0xc          12   
.text.atexit              0x413264            0xc          12   
.text._cleanup_r          0x413270            0xc          12   
.text.__sinit             0x41327c            0xc          12   
.text._fstat              0x413288            0xc          12   
.text.SYS_INT_Restore     0x413294            0xa          10   
.text.GMAC_InterruptHan   0x41329e            0xa          10   
.text.TCPIP_Helper_Sing   0x4132a8            0xa          10   
.text.TCPIP_STACK_NetBI   0x4132b2            0xa          10   
.text.TCPIP_UDP_ServerO   0x4132bc            0xa          10   
.text.TCPIP_UDP_ClientO   0x4132c6            0xa          10   
.rodata.drvMiimInitData   0x4132d0            0x8           8   
.rodata.netPresInitData   0x4132d8            0x8           8   
.rodata.tcpipTCPInitDat   0x4132e0            0x8           8   
.rodata.tcpipUDPInitDat   0x4132e8            0x8           8   
.text._DRV_ETHPHY_Clien   0x4132f0            0x8           8   
.text.DRV_EXTPHY_SMIClo   0x4132f8            0x8           8   
.text.DRV_GMAC_EventPen   0x413300            0x8           8   
.rodata                   0x413308            0x8           8  Read-only const 
.text.TCPIP_HEAP_Malloc   0x413310            0x8           8   
.text.TCPIP_HEAP_Calloc   0x413318            0x8           8   
.text.TCPIP_HEAP_FreeOu   0x413320            0x8           8   
.text.TCPIP_STACK_Gatew   0x413328            0x8           8   
.text.TCPIP_STACK_Prima   0x413330            0x8           8   
.text.TCPIP_STACK_Secon   0x413338            0x8           8   
.text.TCPIP_Notificatio   0x413340            0x8           8   
.text.TCPIP_UDP_TxPutIs   0x413348            0x8           8   
.text.__sclose            0x413350            0x8           8   
.text._close              0x413358            0x8           8   
.text.DRV_ETHPHY_SMIRea   0x413360            0x6           6   
.text.DRV_ETHPHY_SMIWri   0x413366            0x6           6   
.text.DRV_ETHPHY_SMISca   0x41336c            0x6           6   
.text.DRV_ETHPHY_SMISca   0x413372            0x6           6   
.text.DRV_ETHPHY_SMISca   0x413378            0x6           6   
.text.DRV_ETHPHY_SMISca   0x41337e            0x6           6   
.text.DRV_ETHPHY_SMISta   0x413384            0x6           6   
.text.DRV_ETHPHY_SMIClo   0x41338a            0x6           6   
.text.TCPIP_ARP_HashKey   0x413390            0x6           6   
.rodata.tcpipBerkeleyIn   0x413398            0x4           4   
.text.DRV_GMAC_PowerMod   0x41339c            0x4           4   
.text._DHCPOptionProces   0x4133a0            0x4           4   
.rodata._DHCPRequestPar   0x4133a4            0x4           4   
.rodata.dhcpMagicCookie   0x4133a8            0x4           4   
.text.TCPIP_IPV4_IsFrag   0x4133ac            0x4           4   
.text                     0x4133b0            0x4           4  App's exec code 
.rodata._global_impure_   0x4133b4            0x4           4   
.text.__malloc_lock       0x4133b8            0x4           4   
.text.__malloc_unlock     0x4133bc            0x4           4   
.text.__sfp_lock_acquir   0x4133c0            0x4           4   
.text.__sfp_lock_releas   0x4133c4            0x4           4   
.text._isatty             0x4133c8            0x4           4   
.text._lseek              0x4133cc            0x4           4   
.text._mon_getc           0x4133d0            0x4           4   
.text._mon_putc           0x4133d4            0x4           4   
      Total ROM used  :     0x133b4       78772  3.8% of 0x200000
        --------------------------------------------------------------------------
         Total Program Memory used  :     0x133b4       78772  3.8% of 0x200000
        --------------------------------------------------------------------------


RAM Data-Memory Usage
section                    address  length [bytes]      (dec)  Description
-------                 ----------  -------------------------  -----------
.bss                    0x20400000          0x334         820  Uninitialized data 
.bss.timers             0x20400334          0x190         400   
.bss.gDrvMIIMObj        0x204004c4           0x94         148   
.bss.TCPIP_MODULES_QUEU 0x20400558           0x90         144   
.bss.gDrvETHPHYObj      0x204005e8           0x64         100   
.bss.arpMod             0x2040064c           0x44          68   
.bss.gSystemCounterObj  0x20400690           0x30          48   
.bss.gDnsDcpt           0x204006c0           0x28          40   
.data.tcpSecurePortTbl  0x204006e8           0x28          40   
.bss.__malloc_current_m 0x20400710           0x28          40   
.bss.tcpip_stack_ctrl_d 0x20400738           0x20          32   
.bss                    0x20400758           0x1c          28  Uninitialized data 
.data.tcpipHeapConfig   0x20400774           0x14          20   
.bss.tcpip_init_data    0x20400788           0x14          20   
.bss.dhcpRegisteredUser 0x2040079c           0x10          16   
.bss.ipv4ArpQueue       0x204007ac           0x10          16   
.bss.ipv4PacketFilters  0x204007bc           0x10          16   
.bss.tcpip_heap_config  0x204007cc           0x10          16   
.data.sysTimeInitData   0x204007dc            0xc          12   
.data.arpBcastAdd       0x204007e8            0x6           6   
.bss.gSysTimeTokenCount 0x204007ee            0x2           2   
.bss.cmd.13127          0x204007f0            0x4           4   
.bss._MIIMStayAssertLoo 0x204007f4            0x4           4   
.bss._hEventMac         0x204007f8            0x4           4   
.bss.TC0_CH0_TimerStatu 0x204007fc            0x4           4   
.bss.BSDSocketArray     0x20400800            0x4           4   
.bss.InitCount          0x20400804            0x4           4   
.bss.bsdApiHeapH        0x20400808            0x4           4   
.bss.bsdSignalHandle    0x2040080c            0x4           4   
.bss.DHCPClients        0x20400810            0x4           4   
.bss.dhcpFilterHandle   0x20400814            0x4           4   
.bss.dhcpInitCount      0x20400818            0x4           4   
.bss.dhcpInterfaces     0x2040081c            0x4           4   
.bss.dhcpMemH           0x20400820            0x4           4   
.bss.dhcpSecondCount    0x20400824            0x4           4   
.bss.dhcpSignalHandle   0x20400828            0x4           4   
.bss._DNSStayAssertLoop 0x2040082c            0x4           4   
.bss._DNSStayCondLoop   0x20400830            0x4           4   
.bss.dnsInitCount       0x20400834            0x4           4   
.bss.pgDnsDcpt          0x20400838            0x4           4   
.bss._IPv4StayAssertLoo 0x2040083c            0x4           4   
.bss.ipv4ArpHandle      0x20400840            0x4           4   
.bss.ipv4MemH           0x20400844            0x4           4   
.bss.signalHandle       0x20400848            0x4           4   
.bss.newTcpipErrorEvent 0x2040084c            0x4           4   
.bss.newTcpipStackEvent 0x20400850            0x4           4   
.bss.newTcpipTickAvlbl  0x20400854            0x4           4   
.bss.stackAsyncSignalCo 0x20400858            0x4           4   
.bss.stackTaskRate      0x2040085c            0x4           4   
.bss.tcpipDefIf         0x20400860            0x4           4   
.bss.tcpipNetIf         0x20400864            0x4           4   
.bss.totTcpipEventsCnt  0x20400868            0x4           4   
.data.tcpip_stack_tickH 0x2040086c            0x4           4   
.bss.pktMemH            0x20400870            0x4           4   
.bss.systemAdaptObj     0x20400874            0x4           4   
.bss.TCBStubs           0x20400878            0x4           4   
.bss.TcpSockets         0x2040087c            0x4           4   
.bss.tcpHeapH           0x20400880            0x4           4   
.bss.tcpInitCount       0x20400884            0x4           4   
.bss.tcpLockCount       0x20400888            0x4           4   
.bss.tcpSignalHandle    0x2040088c            0x4           4   
.bss.UDPSocketDcpt      0x20400890            0x4           4   
.bss.nUdpSockets        0x20400894            0x4           4   
.bss.signalHandle       0x20400898            0x4           4   
.bss.udpInitCount       0x2040089c            0x4           4   
.bss.udpMemH            0x204008a0            0x4           4   
.data._impure_ptr       0x204008a4            0x4           4   
.bss.__malloc_max_sbrke 0x204008a8            0x4           4   
.bss.__malloc_max_total 0x204008ac            0x4           4   
.bss.__malloc_top_pad   0x204008b0            0x4           4   
.data.__malloc_sbrk_bas 0x204008b4            0x4           4   
.data.__malloc_trim_thr 0x204008b8            0x4           4   
.bss                    0x204008bc            0x4           4  Uninitialized data 
.bss.dhcpClientPort     0x204008c0            0x2           2   
.bss.dhcpClientSocket   0x204008c2            0x2           2   
.bss.dhcpServerPort     0x204008c4            0x2           2   
.bss.ipv4Identifier     0x204008c6            0x2           2   
.bss.ipv4InitCount      0x204008c8            0x2           2   
.bss.tcpDefRxSize       0x204008ca            0x2           2   
.bss.tcpDefTxSize       0x204008cc            0x2           2   
.bss.udpDefTxSize       0x204008ce            0x2           2   
.bss.bsdSemaphore       0x204008d0            0x1           1   
.data.BSD_SOCKET_COUNT  0x204008d1            0x1           1   
.bss.ipv4FilterType     0x204008d2            0x1           1   
.bss.tcpip_stack_status 0x204008d3            0x1           1   
.bss.tcpSemaphore       0x204008d4            0x1           1   
.bss.userSem            0x204008d5            0x1           1   
.bss.gmac_dcpt_array    0x2045f000           0xf0         240   
.data.impure_data       0x2045f0f0          0x428        1064   
.data.__malloc_av_      0x2045f518          0x408        1032   
.data._pic32c_emb_mac_d 0x2045f920          0x300         768   
.bss.TCPIP_STACK_MODULE 0x2045fc20          0x260         608   
.data.__global_locale   0x2045fe80          0x16c         364   
.data.sysTimePlibAPI    0x2045ffec           0x14          20   
         Total RAM used  :      0x18d6        6358  1.6% of 0x60000
        --------------------------------------------------------------------------
            Total Data Memory used  :      0x18d6        6358  1.6% of 0x60000
        --------------------------------------------------------------------------


Dynamic Data-Memory Reservation
section                    address  length [bytes]      (dec)  Description
-------                 ----------  -------------------------  -----------
heap                    0x204008d8         0xafa0       44960  Reserved for heap 
stack                   0x2040b890        0x53760      341856  Reserved for stack 

        --------------------------------------------------------------------------

Discarded input sections

 .text          0x00000000        0x0 d:/00_program_installation/microchip/xc32/v2.10/bin/bin/../../lib/gcc/pic32c/6.2.1/v7e-m/fpv5/hard/crti.o
 .data          0x00000000        0x0 d:/00_program_installation/microchip/xc32/v2.10/bin/bin/../../lib/gcc/pic32c/6.2.1/v7e-m/fpv5/hard/crti.o
 .bss           0x00000000        0x0 d:/00_program_installation/microchip/xc32/v2.10/bin/bin/../../lib/gcc/pic32c/6.2.1/v7e-m/fpv5/hard/crti.o
 .data          0x00000000        0x4 d:/00_program_installation/microchip/xc32/v2.10/bin/bin/../../lib/gcc/pic32c/6.2.1/v7e-m/fpv5/hard/crtbegin.o
 .text          0x00000000       0x74 d:/00_program_installation/microchip/xc32/v2.10/bin/bin/../../lib/gcc/pic32c/6.2.1/../../../../pic32c/lib/v7e-m/fpv5/hard/crt0.o
 .data          0x00000000        0x0 d:/00_program_installation/microchip/xc32/v2.10/bin/bin/../../lib/gcc/pic32c/6.2.1/../../../../pic32c/lib/v7e-m/fpv5/hard/crt0.o
 .bss           0x00000000        0x0 d:/00_program_installation/microchip/xc32/v2.10/bin/bin/../../lib/gcc/pic32c/6.2.1/../../../../pic32c/lib/v7e-m/fpv5/hard/crt0.o
 .ARM.extab     0x00000000        0x0 d:/00_program_installation/microchip/xc32/v2.10/bin/bin/../../lib/gcc/pic32c/6.2.1/../../../../pic32c/lib/v7e-m/fpv5/hard/crt0.o
 .ARM.exidx     0x00000000        0x8 d:/00_program_installation/microchip/xc32/v2.10/bin/bin/../../lib/gcc/pic32c/6.2.1/../../../../pic32c/lib/v7e-m/fpv5/hard/crt0.o
 .debug_line    0x00000000       0xc5 d:/00_program_installation/microchip/xc32/v2.10/bin/bin/../../lib/gcc/pic32c/6.2.1/../../../../pic32c/lib/v7e-m/fpv5/hard/crt0.o
 .debug_info    0x00000000      0x10f d:/00_program_installation/microchip/xc32/v2.10/bin/bin/../../lib/gcc/pic32c/6.2.1/../../../../pic32c/lib/v7e-m/fpv5/hard/crt0.o
 .debug_abbrev  0x00000000       0x14 d:/00_program_installation/microchip/xc32/v2.10/bin/bin/../../lib/gcc/pic32c/6.2.1/../../../../pic32c/lib/v7e-m/fpv5/hard/crt0.o
 .debug_aranges
                0x00000000       0x20 d:/00_program_installation/microchip/xc32/v2.10/bin/bin/../../lib/gcc/pic32c/6.2.1/../../../../pic32c/lib/v7e-m/fpv5/hard/crt0.o
 .ARM.attributes
                0x00000000       0x1e d:/00_program_installation/microchip/xc32/v2.10/bin/bin/../../lib/gcc/pic32c/6.2.1/../../../../pic32c/lib/v7e-m/fpv5/hard/crt0.o
 .text          0x00000000        0x0 build/default/production/_ext/1360937237/main.o
 .data          0x00000000        0x0 build/default/production/_ext/1360937237/main.o
 .bss           0x00000000        0x0 build/default/production/_ext/1360937237/main.o
 .text          0x00000000        0x0 build/default/production/_ext/1360937237/app.o
 .data          0x00000000        0x0 build/default/production/_ext/1360937237/app.o
 .bss           0x00000000        0x0 build/default/production/_ext/1360937237/app.o
 .text          0x00000000        0x0 build/default/production/_ext/1171490990/initialization.o
 .data          0x00000000        0x0 build/default/production/_ext/1171490990/initialization.o
 .bss           0x00000000        0x0 build/default/production/_ext/1171490990/initialization.o
 .text          0x00000000        0x0 build/default/production/_ext/1171490990/tasks.o
 .data          0x00000000        0x0 build/default/production/_ext/1171490990/tasks.o
 .bss           0x00000000        0x0 build/default/production/_ext/1171490990/tasks.o
 .text          0x00000000        0x0 build/default/production/_ext/1171490990/interrupts.o
 .data          0x00000000        0x0 build/default/production/_ext/1171490990/interrupts.o
 .bss           0x00000000        0x0 build/default/production/_ext/1171490990/interrupts.o
 .text          0x00000000        0x0 build/default/production/_ext/1171490990/exceptions.o
 .data          0x00000000        0x0 build/default/production/_ext/1171490990/exceptions.o
 .bss           0x00000000        0x0 build/default/production/_ext/1171490990/exceptions.o
 .text          0x00000000        0x0 build/default/production/_ext/60165520/plib_clk.o
 .data          0x00000000        0x0 build/default/production/_ext/60165520/plib_clk.o
 .bss           0x00000000        0x0 build/default/production/_ext/60165520/plib_clk.o
 .text          0x00000000        0x0 build/default/production/_ext/60177924/plib_pio.o
 .data          0x00000000        0x0 build/default/production/_ext/60177924/plib_pio.o
 .bss           0x00000000        0x0 build/default/production/_ext/60177924/plib_pio.o
 .text.PIO_PortRead
                0x00000000        0x4 build/default/production/_ext/60177924/plib_pio.o
 .text.PIO_PortWrite
                0x00000000        0xc build/default/production/_ext/60177924/plib_pio.o
 .text.PIO_PortReadLatch
                0x00000000        0x4 build/default/production/_ext/60177924/plib_pio.o
 .text.PIO_PortSet
                0x00000000        0x4 build/default/production/_ext/60177924/plib_pio.o
 .text.PIO_PortClear
                0x00000000        0x4 build/default/production/_ext/60177924/plib_pio.o
 .text.PIO_PortToggle
                0x00000000        0x8 build/default/production/_ext/60177924/plib_pio.o
 .text.PIO_PortInputEnable
                0x00000000        0x4 build/default/production/_ext/60177924/plib_pio.o
 .text.PIO_PortOutputEnable
                0x00000000        0x4 build/default/production/_ext/60177924/plib_pio.o
 .text.PIO_PortInterruptEnable
                0x00000000        0x4 build/default/production/_ext/60177924/plib_pio.o
 .text.PIO_PortInterruptDisable
                0x00000000        0x4 build/default/production/_ext/60177924/plib_pio.o
 .text          0x00000000        0x0 build/default/production/_ext/1865468468/plib_nvic.o
 .data          0x00000000        0x0 build/default/production/_ext/1865468468/plib_nvic.o
 .bss           0x00000000        0x0 build/default/production/_ext/1865468468/plib_nvic.o
 .text          0x00000000        0x0 build/default/production/_ext/60175264/plib_mpu.o
 .data          0x00000000        0x0 build/default/production/_ext/60175264/plib_mpu.o
 .bss           0x00000000        0x0 build/default/production/_ext/60175264/plib_mpu.o
 .text          0x00000000        0x0 build/default/production/_ext/1171490990/startup.o
 .data          0x00000000        0x0 build/default/production/_ext/1171490990/startup.o
 .bss           0x00000000        0x0 build/default/production/_ext/1171490990/startup.o
 .text          0x00000000        0x0 build/default/production/_ext/1171490990/libc_syscalls.o
 .data          0x00000000        0x0 build/default/production/_ext/1171490990/libc_syscalls.o
 .bss           0x00000000        0x0 build/default/production/_ext/1171490990/libc_syscalls.o
 .text._exit    0x00000000        0x2 build/default/production/_ext/1171490990/libc_syscalls.o
 .debug_info    0x00000000      0xe5f build/default/production/_ext/1171490990/libc_syscalls.o
 .debug_abbrev  0x00000000      0x1a8 build/default/production/_ext/1171490990/libc_syscalls.o
 .debug_aranges
                0x00000000       0x20 build/default/production/_ext/1171490990/libc_syscalls.o
 .debug_ranges  0x00000000       0x10 build/default/production/_ext/1171490990/libc_syscalls.o
 .debug_line    0x00000000      0x223 build/default/production/_ext/1171490990/libc_syscalls.o
 .debug_str     0x00000000        0xe build/default/production/_ext/1171490990/libc_syscalls.o
 .comment       0x00000000       0x3d build/default/production/_ext/1171490990/libc_syscalls.o
 .debug_frame   0x00000000       0x20 build/default/production/_ext/1171490990/libc_syscalls.o
 .ARM.attributes
                0x00000000       0x37 build/default/production/_ext/1171490990/libc_syscalls.o
 .text          0x00000000        0x0 build/default/production/_ext/1881668453/sys_int.o
 .data          0x00000000        0x0 build/default/production/_ext/1881668453/sys_int.o
 .bss           0x00000000        0x0 build/default/production/_ext/1881668453/sys_int.o
 .text.SYS_INT_Enable
                0x00000000        0x8 build/default/production/_ext/1881668453/sys_int.o
 .text          0x00000000        0x0 build/default/production/_ext/444070925/drv_ethphy.o
 .data          0x00000000        0x0 build/default/production/_ext/444070925/drv_ethphy.o
 .bss           0x00000000        0x0 build/default/production/_ext/444070925/drv_ethphy.o
 .bss._PhyStayAssertLoop
                0x00000000        0x4 build/default/production/_ext/444070925/drv_ethphy.o
 .bss._PhyStayCondLoop
                0x00000000        0x4 build/default/production/_ext/444070925/drv_ethphy.o
 .text          0x00000000        0x0 build/default/production/_ext/444070925/drv_extphy_smsc8740.o
 .data          0x00000000        0x0 build/default/production/_ext/444070925/drv_extphy_smsc8740.o
 .bss           0x00000000        0x0 build/default/production/_ext/444070925/drv_extphy_smsc8740.o
 .text          0x00000000        0x0 build/default/production/_ext/438849557/drv_miim.o
 .data          0x00000000        0x0 build/default/production/_ext/438849557/drv_miim.o
 .bss           0x00000000        0x0 build/default/production/_ext/438849557/drv_miim.o
 .text.Helper_SingleListInitialize
                0x00000000        0xa build/default/production/_ext/438849557/drv_miim.o
 .bss._MIIMStayCondLoop
                0x00000000        0x4 build/default/production/_ext/438849557/drv_miim.o
 .text          0x00000000        0x0 build/default/production/_ext/1546807373/drv_gmac.o
 .data          0x00000000        0x0 build/default/production/_ext/1546807373/drv_gmac.o
 .bss           0x00000000        0x0 build/default/production/_ext/1546807373/drv_gmac.o
 .text          0x00000000        0x0 build/default/production/_ext/1546807373/drv_gmac_lib.o
 .data          0x00000000        0x0 build/default/production/_ext/1546807373/drv_gmac_lib.o
 .bss           0x00000000        0x0 build/default/production/_ext/1546807373/drv_gmac_lib.o
 .text          0x00000000        0x0 build/default/production/_ext/718466696/net_pres.o
 .data          0x00000000        0x0 build/default/production/_ext/718466696/net_pres.o
 .bss           0x00000000        0x0 build/default/production/_ext/718466696/net_pres.o
 .text.NET_PRES_Deinitialize
                0x00000000       0xa4 build/default/production/_ext/718466696/net_pres.o
 .text.NET_PRES_Reinitialize
                0x00000000       0x12 build/default/production/_ext/718466696/net_pres.o
 .text.NET_PRES_SocketOpen
                0x00000000      0x1d8 build/default/production/_ext/718466696/net_pres.o
 .text.NET_PRES_SocketBind
                0x00000000       0x54 build/default/production/_ext/718466696/net_pres.o
 .text.NET_PRES_SocketRemoteBind
                0x00000000       0x54 build/default/production/_ext/718466696/net_pres.o
 .text.NET_PRES_SocketOptionsSet
                0x00000000       0x54 build/default/production/_ext/718466696/net_pres.o
 .text.NET_PRES_SocketOptionsGet
                0x00000000       0x54 build/default/production/_ext/718466696/net_pres.o
 .text.NET_PRES_SocketIsConnected
                0x00000000       0x54 build/default/production/_ext/718466696/net_pres.o
 .text.NET_PRES_SocketWasReset
                0x00000000       0x54 build/default/production/_ext/718466696/net_pres.o
 .text.NET_PRES_SocketConnect
                0x00000000       0x54 build/default/production/_ext/718466696/net_pres.o
 .text.NET_PRES_SocketInfoGet
                0x00000000       0x54 build/default/production/_ext/718466696/net_pres.o
 .text.NET_PRES_SocketWriteIsReady
                0x00000000      0x118 build/default/production/_ext/718466696/net_pres.o
 .text.NET_PRES_SocketReadIsReady
                0x00000000       0xac build/default/production/_ext/718466696/net_pres.o
 .text.NET_PRES_SocketWrite
                0x00000000       0x9c build/default/production/_ext/718466696/net_pres.o
 .text.NET_PRES_SocketFlush
                0x00000000       0x58 build/default/production/_ext/718466696/net_pres.o
 .text.NET_PRES_SocketRead
                0x00000000       0x9c build/default/production/_ext/718466696/net_pres.o
 .text.NET_PRES_SocketPeek
                0x00000000       0xa0 build/default/production/_ext/718466696/net_pres.o
 .text.NET_PRES_SocketDiscard
                0x00000000       0x58 build/default/production/_ext/718466696/net_pres.o
 .text.NET_PRES_SocketSignalHandlerRegister
                0x00000000       0x54 build/default/production/_ext/718466696/net_pres.o
 .text.NET_PRES_SocketSignalHandlerDeregister
                0x00000000       0x4c build/default/production/_ext/718466696/net_pres.o
 .text.NET_PRES_SocketIsNegotiatingEncryption
                0x00000000       0x34 build/default/production/_ext/718466696/net_pres.o
 .text.NET_PRES_SocketIsSecure
                0x00000000       0x30 build/default/production/_ext/718466696/net_pres.o
 .text.NET_PRES_SocketEncryptSocket
                0x00000000       0x50 build/default/production/_ext/718466696/net_pres.o
 .text.NET_PRES_SocketIsOpenModeSupported
                0x00000000       0xac build/default/production/_ext/718466696/net_pres.o
 .text.NET_PRES_Status
                0x00000000       0x1c build/default/production/_ext/718466696/net_pres.o
 .text.NET_PRES_SocketLastError
                0x00000000       0x40 build/default/production/_ext/718466696/net_pres.o
 .text.NET_PRES_SocketGetTransportHandle
                0x00000000       0x40 build/default/production/_ext/718466696/net_pres.o
 .text          0x00000000        0x0 build/default/production/_ext/678723491/net_pres_enc_glue.o
 .data          0x00000000        0x0 build/default/production/_ext/678723491/net_pres_enc_glue.o
 .bss           0x00000000        0x0 build/default/production/_ext/678723491/net_pres_enc_glue.o
 .debug_info    0x00000000      0xdbd build/default/production/_ext/678723491/net_pres_enc_glue.o
 .debug_abbrev  0x00000000      0x160 build/default/production/_ext/678723491/net_pres_enc_glue.o
 .debug_aranges
                0x00000000       0x18 build/default/production/_ext/678723491/net_pres_enc_glue.o
 .debug_line    0x00000000       0xda build/default/production/_ext/678723491/net_pres_enc_glue.o
 .debug_str     0x00000000        0xe build/default/production/_ext/678723491/net_pres_enc_glue.o
 .comment       0x00000000       0x3d build/default/production/_ext/678723491/net_pres_enc_glue.o
 .ARM.attributes
                0x00000000       0x37 build/default/production/_ext/678723491/net_pres_enc_glue.o
 .text          0x00000000        0x0 build/default/production/_ext/678723491/net_pres_cert_store.o
 .data          0x00000000        0x0 build/default/production/_ext/678723491/net_pres_cert_store.o
 .bss           0x00000000        0x0 build/default/production/_ext/678723491/net_pres_cert_store.o
 .debug_info    0x00000000      0xdb6 build/default/production/_ext/678723491/net_pres_cert_store.o
 .debug_abbrev  0x00000000      0x160 build/default/production/_ext/678723491/net_pres_cert_store.o
 .debug_aranges
                0x00000000       0x18 build/default/production/_ext/678723491/net_pres_cert_store.o
 .debug_line    0x00000000       0xda build/default/production/_ext/678723491/net_pres_cert_store.o
 .debug_str     0x00000000        0xe build/default/production/_ext/678723491/net_pres_cert_store.o
 .comment       0x00000000       0x3d build/default/production/_ext/678723491/net_pres_cert_store.o
 .ARM.attributes
                0x00000000       0x37 build/default/production/_ext/678723491/net_pres_cert_store.o
 .text          0x00000000        0x0 build/default/production/_ext/101884895/sys_time.o
 .data          0x00000000        0x0 build/default/production/_ext/101884895/sys_time.o
 .bss           0x00000000        0x0 build/default/production/_ext/101884895/sys_time.o
 .text.SYS_TMR_Deinitialize
                0x00000000       0x34 build/default/production/_ext/101884895/sys_time.o
 .text.SYS_TIME_Status
                0x00000000       0x14 build/default/production/_ext/101884895/sys_time.o
 .text.SYS_TIME_CounterGet
                0x00000000       0x30 build/default/production/_ext/101884895/sys_time.o
 .text.SYS_TIME_CounterSet
                0x00000000       0x18 build/default/production/_ext/101884895/sys_time.o
 .text.SYS_TIME_CountToUS
                0x00000000       0x18 build/default/production/_ext/101884895/sys_time.o
 .text.SYS_TIME_CountToMS
                0x00000000       0x18 build/default/production/_ext/101884895/sys_time.o
 .text.SYS_TIME_USToCount
                0x00000000       0x1c build/default/production/_ext/101884895/sys_time.o
 .text.SYS_TIME_MSToCount
                0x00000000       0x1c build/default/production/_ext/101884895/sys_time.o
 .text.SYS_TIME_TimerReload
                0x00000000       0x54 build/default/production/_ext/101884895/sys_time.o
 .text.SYS_TIME_TimerStop
                0x00000000       0x4c build/default/production/_ext/101884895/sys_time.o
 .text.SYS_TIME_TimerCounterGet
                0x00000000        0x4 build/default/production/_ext/101884895/sys_time.o
 .text.SYS_TIME_TimerPeriodHasExpired
                0x00000000       0x28 build/default/production/_ext/101884895/sys_time.o
 .text.SYS_TIME_DelayUS
                0x00000000       0x44 build/default/production/_ext/101884895/sys_time.o
 .text.SYS_TIME_DelayMS
                0x00000000       0x44 build/default/production/_ext/101884895/sys_time.o
 .text.SYS_TIME_DelayIsComplete
                0x00000000       0x18 build/default/production/_ext/101884895/sys_time.o
 .text.SYS_TIME_CallbackRegisterUS
                0x00000000       0x3c build/default/production/_ext/101884895/sys_time.o
 .text          0x00000000        0x0 build/default/production/_ext/829342655/plib_tc0.o
 .data          0x00000000        0x0 build/default/production/_ext/829342655/plib_tc0.o
 .bss           0x00000000        0x0 build/default/production/_ext/829342655/plib_tc0.o
 .text.TC0_CH0_TimerPeriodGet
                0x00000000        0xc build/default/production/_ext/829342655/plib_tc0.o
 .text.TC0_CH0_TimerPeriodHasExpired
                0x00000000       0x3c build/default/production/_ext/829342655/plib_tc0.o
 .text          0x00000000        0x0 build/default/production/_ext/1033058136/arp.o
 .data          0x00000000        0x0 build/default/production/_ext/1033058136/arp.o
 .bss           0x00000000        0x0 build/default/production/_ext/1033058136/arp.o
 .text.TCPIP_ARP_Resolve
                0x00000000       0x46 build/default/production/_ext/1033058136/arp.o
 .text.TCPIP_ARP_EntrySet
                0x00000000       0xe4 build/default/production/_ext/1033058136/arp.o
 .text.TCPIP_ARP_EntryRemoveAll
                0x00000000       0x84 build/default/production/_ext/1033058136/arp.o
 .text.TCPIP_ARP_EntryQuery
                0x00000000       0xa4 build/default/production/_ext/1033058136/arp.o
 .text.TCPIP_ARP_CacheEntriesNoGet
                0x00000000       0x68 build/default/production/_ext/1033058136/arp.o
 .text.TCPIP_ARP_CacheThresholdSet
                0x00000000       0x50 build/default/production/_ext/1033058136/arp.o
 .text          0x00000000        0x0 build/default/production/_ext/1033058136/berkeley_api.o
 .data          0x00000000        0x0 build/default/production/_ext/1033058136/berkeley_api.o
 .bss           0x00000000        0x0 build/default/production/_ext/1033058136/berkeley_api.o
 .text.TCP_SignalFunction
                0x00000000       0x60 build/default/production/_ext/1033058136/berkeley_api.o
 .text.HandlePossibleTCPDisconnection
                0x00000000       0x80 build/default/production/_ext/1033058136/berkeley_api.o
 .text._cfgBsdSocket
                0x00000000       0xd4 build/default/production/_ext/1033058136/berkeley_api.o
 .text.socket   0x00000000       0xfc build/default/production/_ext/1033058136/berkeley_api.o
 .text.bind     0x00000000       0xf0 build/default/production/_ext/1033058136/berkeley_api.o
 .text.listen   0x00000000      0x140 build/default/production/_ext/1033058136/berkeley_api.o
 .text.accept   0x00000000      0x110 build/default/production/_ext/1033058136/berkeley_api.o
 .text.connect  0x00000000      0x27c build/default/production/_ext/1033058136/berkeley_api.o
 .text.sendto   0x00000000      0x170 build/default/production/_ext/1033058136/berkeley_api.o
 .text.send     0x00000000       0x12 build/default/production/_ext/1033058136/berkeley_api.o
 .text.recv     0x00000000       0xec build/default/production/_ext/1033058136/berkeley_api.o
 .text.recvfrom
                0x00000000      0x104 build/default/production/_ext/1033058136/berkeley_api.o
 .text.gethostname
                0x00000000       0x56 build/default/production/_ext/1033058136/berkeley_api.o
 .text._setsockopt_ip
                0x00000000       0x10 build/default/production/_ext/1033058136/berkeley_api.o
 .text._setsockopt_socket
                0x00000000       0x9a build/default/production/_ext/1033058136/berkeley_api.o
 .text._setsockopt_tcp
                0x00000000       0x32 build/default/production/_ext/1033058136/berkeley_api.o
 .text._setsockopt_ipv6
                0x00000000       0x10 build/default/production/_ext/1033058136/berkeley_api.o
 .text._setsockopt_icmp6
                0x00000000       0x10 build/default/production/_ext/1033058136/berkeley_api.o
 .text.setsockopt
                0x00000000       0x94 build/default/production/_ext/1033058136/berkeley_api.o
 .text._getsockopt_ip
                0x00000000       0x10 build/default/production/_ext/1033058136/berkeley_api.o
 .text._getsockopt_socket
                0x00000000       0xee build/default/production/_ext/1033058136/berkeley_api.o
 .text._getsockopt_tcp
                0x00000000       0x4c build/default/production/_ext/1033058136/berkeley_api.o
 .text._getsockopt_ipv6
                0x00000000       0x10 build/default/production/_ext/1033058136/berkeley_api.o
 .text._getsockopt_icmp6
                0x00000000       0x10 build/default/production/_ext/1033058136/berkeley_api.o
 .text.getsockopt
                0x00000000       0x94 build/default/production/_ext/1033058136/berkeley_api.o
 .text.gethostent
                0x00000000        0x8 build/default/production/_ext/1033058136/berkeley_api.o
 .text.gethostbyname
                0x00000000       0xa0 build/default/production/_ext/1033058136/berkeley_api.o
 .text.getsockname
                0x00000000       0x7c build/default/production/_ext/1033058136/berkeley_api.o
 .text.TCPIP_BSD_Socket
                0x00000000       0x50 build/default/production/_ext/1033058136/berkeley_api.o
 .text.getaddrinfo
                0x00000000      0x1f0 build/default/production/_ext/1033058136/berkeley_api.o
 .text.freeaddrinfo
                0x00000000       0x22 build/default/production/_ext/1033058136/berkeley_api.o
 .bss.sAddr     0x00000000        0x4 build/default/production/_ext/1033058136/berkeley_api.o
 .bss.sHaveDnsToken
                0x00000000        0x1 build/default/production/_ext/1033058136/berkeley_api.o
 .bss.sgaihash  0x00000000        0x4 build/default/production/_ext/1033058136/berkeley_api.o
 .bss.sgaistate
                0x00000000        0x1 build/default/production/_ext/1033058136/berkeley_api.o
 .data.sHostArray
                0x00000000        0x8 build/default/production/_ext/1033058136/berkeley_api.o
 .data.sHostEnt
                0x00000000       0x14 build/default/production/_ext/1033058136/berkeley_api.o
 COMMON         0x00000000        0x4 build/default/production/_ext/1033058136/berkeley_api.o
 .text          0x00000000        0x0 build/default/production/_ext/1033058136/dhcp.o
 .data          0x00000000        0x0 build/default/production/_ext/1033058136/dhcp.o
 .bss           0x00000000        0x0 build/default/production/_ext/1033058136/dhcp.o
 .text._DHCPStartOperation
                0x00000000       0xc8 build/default/production/_ext/1033058136/dhcp.o
 .text.TCPIP_DHCP_Disable
                0x00000000       0x64 build/default/production/_ext/1033058136/dhcp.o
 .text.TCPIP_DHCP_Enable
                0x00000000       0x20 build/default/production/_ext/1033058136/dhcp.o
 .text.TCPIP_DHCP_Renew
                0x00000000       0x20 build/default/production/_ext/1033058136/dhcp.o
 .text.TCPIP_DHCP_Request
                0x00000000       0x24 build/default/production/_ext/1033058136/dhcp.o
 .text.TCPIP_DHCP_IsEnabled
                0x00000000       0x48 build/default/production/_ext/1033058136/dhcp.o
 .text.TCPIP_DHCP_IsActive
                0x00000000       0x38 build/default/production/_ext/1033058136/dhcp.o
 .text.TCPIP_DHCP_IsBound
                0x00000000       0x48 build/default/production/_ext/1033058136/dhcp.o
 .text.TCPIP_DHCP_IsServerDetected
                0x00000000       0x48 build/default/production/_ext/1033058136/dhcp.o
 .text.TCPIP_DHCP_RequestTimeoutSet
                0x00000000       0x58 build/default/production/_ext/1033058136/dhcp.o
 .text.TCPIP_DHCP_HandlerRegister
                0x00000000       0x34 build/default/production/_ext/1033058136/dhcp.o
 .text.TCPIP_DHCP_HandlerDeRegister
                0x00000000       0x24 build/default/production/_ext/1033058136/dhcp.o
 .text.TCPIP_DHCP_InfoGet
                0x00000000       0x94 build/default/production/_ext/1033058136/dhcp.o
 .text.TCPIP_DHCP_HostNameCallbackRegister
                0x00000000       0x54 build/default/production/_ext/1033058136/dhcp.o
 .text          0x00000000        0x0 build/default/production/_ext/1033058136/dns.o
 .data          0x00000000        0x0 build/default/production/_ext/1033058136/dns.o
 .bss           0x00000000        0x0 build/default/production/_ext/1033058136/dns.o
 .text._DNS_Resolve
                0x00000000      0x11c build/default/production/_ext/1033058136/dns.o
 .text._DNS_GetAddresses
                0x00000000       0xd8 build/default/production/_ext/1033058136/dns.o
 .text._DNS_IsNameResolved
                0x00000000       0xf8 build/default/production/_ext/1033058136/dns.o
 .text.TCPIP_DNS_Resolve
                0x00000000        0xa build/default/production/_ext/1033058136/dns.o
 .text.TCPIP_DNS_Send_Query
                0x00000000        0xa build/default/production/_ext/1033058136/dns.o
 .text.TCPIP_DNS_GetIPv4Addresses
                0x00000000       0x10 build/default/production/_ext/1033058136/dns.o
 .text.TCPIP_DNS_GetIPv6Addresses
                0x00000000       0x10 build/default/production/_ext/1033058136/dns.o
 .text.TCPIP_DNS_GetIPAddressesNumber
                0x00000000       0x60 build/default/production/_ext/1033058136/dns.o
 .text.TCPIP_DNS_IsResolved
                0x00000000       0x1c build/default/production/_ext/1033058136/dns.o
 .text.TCPIP_DNS_IsNameResolved
                0x00000000        0xa build/default/production/_ext/1033058136/dns.o
 .text.TCPIP_DNS_ClientInfoGet
                0x00000000       0x38 build/default/production/_ext/1033058136/dns.o
 .text.TCPIP_DNS_EntryQuery
                0x00000000      0x158 build/default/production/_ext/1033058136/dns.o
 .text.TCPIP_DNS_RemoveAll
                0x00000000       0x54 build/default/production/_ext/1033058136/dns.o
 .text.TCPIP_DNS_IsEnabled
                0x00000000       0x1e build/default/production/_ext/1033058136/dns.o
 .text.TCPIP_DNS_Enable
                0x00000000        0xc build/default/production/_ext/1033058136/dns.o
 .text.TCPIP_DNS_Disable
                0x00000000       0x6c build/default/production/_ext/1033058136/dns.o
 .text          0x00000000        0x0 build/default/production/_ext/1033058136/ipv4.o
 .data          0x00000000        0x0 build/default/production/_ext/1033058136/ipv4.o
 .bss           0x00000000        0x0 build/default/production/_ext/1033058136/ipv4.o
 .text.TCPIP_IPV4_PacketFilterSet
                0x00000000       0x10 build/default/production/_ext/1033058136/ipv4.o
 .text.TCPIP_IPV4_PacketFilterClear
                0x00000000       0x10 build/default/production/_ext/1033058136/ipv4.o
 .text.TCPIP_IPV4_MacPacketSwitchTxToRx
                0x00000000       0x82 build/default/production/_ext/1033058136/ipv4.o
 .text.TCPIP_IPV4_MacPacketTransmit
                0x00000000       0x64 build/default/production/_ext/1033058136/ipv4.o
 .text.TCPIP_IPV4_PacketAlloc
                0x00000000       0x7a build/default/production/_ext/1033058136/ipv4.o
 .text.TCPIP_IPV4_PacketOptionFieldSet
                0x00000000       0x36 build/default/production/_ext/1033058136/ipv4.o
 .text.TCPIP_IPV4_PacketOptionListGet
                0x00000000       0x62 build/default/production/_ext/1033058136/ipv4.o
 .text.TCPIP_IPV4_PacketOptionGet
                0x00000000       0x7c build/default/production/_ext/1033058136/ipv4.o
 .text          0x00000000        0x0 build/default/production/_ext/1033058136/tcpip_heap_alloc.o
 .data          0x00000000        0x0 build/default/production/_ext/1033058136/tcpip_heap_alloc.o
 .bss           0x00000000        0x0 build/default/production/_ext/1033058136/tcpip_heap_alloc.o
 .text._TCPIP_HEAP_PointerMapCached
                0x00000000        0x2 build/default/production/_ext/1033058136/tcpip_heap_alloc.o
 .text          0x00000000        0x0 build/default/production/_ext/1033058136/tcpip_heap_internal.o
 .data          0x00000000        0x0 build/default/production/_ext/1033058136/tcpip_heap_internal.o
 .bss           0x00000000        0x0 build/default/production/_ext/1033058136/tcpip_heap_internal.o
 .text          0x00000000        0x0 build/default/production/_ext/1033058136/helpers.o
 .data          0x00000000        0x0 build/default/production/_ext/1033058136/helpers.o
 .bss           0x00000000        0x0 build/default/production/_ext/1033058136/helpers.o
 .text.uitoa    0x00000000       0x60 build/default/production/_ext/1033058136/helpers.o
 .text.btohexa_high
                0x00000000        0xc build/default/production/_ext/1033058136/helpers.o
 .text.btohexa_low
                0x00000000        0xe build/default/production/_ext/1033058136/helpers.o
 .text.strncpy_m
                0x00000000       0x70 build/default/production/_ext/1033058136/helpers.o
 .text          0x00000000        0x0 build/default/production/_ext/1033058136/hash_fnv.o
 .data          0x00000000        0x0 build/default/production/_ext/1033058136/hash_fnv.o
 .bss           0x00000000        0x0 build/default/production/_ext/1033058136/hash_fnv.o
 .text.fnv_32a_hash
                0x00000000       0x30 build/default/production/_ext/1033058136/hash_fnv.o
 .text          0x00000000        0x0 build/default/production/_ext/1033058136/oahash.o
 .data          0x00000000        0x0 build/default/production/_ext/1033058136/oahash.o
 .bss           0x00000000        0x0 build/default/production/_ext/1033058136/oahash.o
 .text          0x00000000        0x0 build/default/production/_ext/1033058136/tcpip_helpers.o
 .data          0x00000000        0x0 build/default/production/_ext/1033058136/tcpip_helpers.o
 .bss           0x00000000        0x0 build/default/production/_ext/1033058136/tcpip_helpers.o
 .text.TCPIP_Helper_IPAddressToString
                0x00000000       0x50 build/default/production/_ext/1033058136/tcpip_helpers.o
 .text.TCPIP_Helper_StringToIPv6Address
                0x00000000      0x18c build/default/production/_ext/1033058136/tcpip_helpers.o
 .text.TCPIP_Helper_IPv6AddressToString
                0x00000000       0xb2 build/default/production/_ext/1033058136/tcpip_helpers.o
 .text.TCPIP_Helper_IsPrivateAddress
                0x00000000       0x2c build/default/production/_ext/1033058136/tcpip_helpers.o
 .text.TCPIP_Helper_MACAddressToString
                0x00000000       0x48 build/default/production/_ext/1033058136/tcpip_helpers.o
 .text.TCPIP_Helper_PowerModeToString
                0x00000000       0x18 build/default/production/_ext/1033058136/tcpip_helpers.o
 .text.TCPIP_Helper_Base64Decode
                0x00000000       0xea build/default/production/_ext/1033058136/tcpip_helpers.o
 .text.TCPIP_Helper_Base64Encode
                0x00000000      0x104 build/default/production/_ext/1033058136/tcpip_helpers.o
 .text.TCPIP_Helper_FindCommonPrefix
                0x00000000       0x4e build/default/production/_ext/1033058136/tcpip_helpers.o
 .text.TCPIP_Helper_SingleListHeadAdd
                0x00000000       0x16 build/default/production/_ext/1033058136/tcpip_helpers.o
 .text.TCPIP_Helper_SingleListMidAdd
                0x00000000        0xe build/default/production/_ext/1033058136/tcpip_helpers.o
 .text.TCPIP_Helper_SingleListNextRemove
                0x00000000       0x26 build/default/production/_ext/1033058136/tcpip_helpers.o
 .text.TCPIP_Helper_SingleListFind
                0x00000000       0x20 build/default/production/_ext/1033058136/tcpip_helpers.o
 .text.TCPIP_Helper_ProtectedSingleListHeadAdd
                0x00000000       0x3a build/default/production/_ext/1033058136/tcpip_helpers.o
 .text.TCPIP_Helper_ProtectedSingleListMidAdd
                0x00000000       0x40 build/default/production/_ext/1033058136/tcpip_helpers.o
 .text.TCPIP_Helper_ProtectedSingleListNextRemove
                0x00000000       0x40 build/default/production/_ext/1033058136/tcpip_helpers.o
 .text.TCPIP_Helper_ProtectedSingleListAppend
                0x00000000       0x3a build/default/production/_ext/1033058136/tcpip_helpers.o
 .text.TCPIP_Helper_DoubleListInitialize
                0x00000000        0xa build/default/production/_ext/1033058136/tcpip_helpers.o
 .text.TCPIP_Helper_DoubleListHeadAdd
                0x00000000       0x22 build/default/production/_ext/1033058136/tcpip_helpers.o
 .text.TCPIP_Helper_DoubleListTailAdd
                0x00000000       0x24 build/default/production/_ext/1033058136/tcpip_helpers.o
 .text.TCPIP_Helper_DoubleListMidAdd
                0x00000000       0x14 build/default/production/_ext/1033058136/tcpip_helpers.o
 .text.TCPIP_Helper_DoubleListHeadRemove
                0x00000000       0x24 build/default/production/_ext/1033058136/tcpip_helpers.o
 .text.TCPIP_Helper_DoubleListTailRemove
                0x00000000       0x24 build/default/production/_ext/1033058136/tcpip_helpers.o
 .text.TCPIP_Helper_DoubleListMidRemove
                0x00000000       0x14 build/default/production/_ext/1033058136/tcpip_helpers.o
 .text.TCPIP_Helper_DoubleListNodeRemove
                0x00000000       0x20 build/default/production/_ext/1033058136/tcpip_helpers.o
 .text.TCPIP_Helper_DoubleListFind
                0x00000000       0x20 build/default/production/_ext/1033058136/tcpip_helpers.o
 .text.TCPIP_Helper_ProtectedDoubleListInitialize
                0x00000000       0x1e build/default/production/_ext/1033058136/tcpip_helpers.o
 .text.TCPIP_Helper_ProtectedDoubleListDeinitialize
                0x00000000       0x32 build/default/production/_ext/1033058136/tcpip_helpers.o
 .text.TCPIP_Helper_ProtectedDoubleListHeadAdd
                0x00000000       0x3a build/default/production/_ext/1033058136/tcpip_helpers.o
 .text.TCPIP_Helper_ProtectedDoubleListTailAdd
                0x00000000       0x3a build/default/production/_ext/1033058136/tcpip_helpers.o
 .text.TCPIP_Helper_ProtectedDoubleListMidAdd
                0x00000000       0x3e build/default/production/_ext/1033058136/tcpip_helpers.o
 .text.TCPIP_Helper_ProtectedDoubleListHeadRemove
                0x00000000       0x3c build/default/production/_ext/1033058136/tcpip_helpers.o
 .text.TCPIP_Helper_ProtectedDoubleListTailRemove
                0x00000000       0x3c build/default/production/_ext/1033058136/tcpip_helpers.o
 .text.TCPIP_Helper_ProtectedDoubleListMidRemove
                0x00000000       0x3a build/default/production/_ext/1033058136/tcpip_helpers.o
 .text.TCPIP_Helper_ProtectedDoubleListNodeRemove
                0x00000000       0x3a build/default/production/_ext/1033058136/tcpip_helpers.o
 .text.TCPIP_Helper_ProtectedDoubleListRemoveAll
                0x00000000       0x3c build/default/production/_ext/1033058136/tcpip_helpers.o
 .text.TCPIP_Helper_ProtectedDoubleListLock
                0x00000000       0x22 build/default/production/_ext/1033058136/tcpip_helpers.o
 .text.TCPIP_Helper_ProtectedDoubleListUnlock
                0x00000000       0x1a build/default/production/_ext/1033058136/tcpip_helpers.o
 .text.TCPIP_Helper_SecurePortGetByIndex
                0x00000000       0x34 build/default/production/_ext/1033058136/tcpip_helpers.o
 .text.TCPIP_Helper_SecurePortSet
                0x00000000       0x5e build/default/production/_ext/1033058136/tcpip_helpers.o
 .text          0x00000000        0x0 build/default/production/_ext/1033058136/tcpip_manager.o
 .data          0x00000000        0x0 build/default/production/_ext/1033058136/tcpip_manager.o
 .bss           0x00000000        0x0 build/default/production/_ext/1033058136/tcpip_manager.o
 .text._NetConfigStringToBuffer
                0x00000000       0x54 build/default/production/_ext/1033058136/tcpip_manager.o
 .text.TCPIP_STACK_Status
                0x00000000       0x1c build/default/production/_ext/1033058136/tcpip_manager.o
 .text.TCPIP_STACK_InitializeDataGet
                0x00000000       0x2c build/default/production/_ext/1033058136/tcpip_manager.o
 .text.TCPIP_STACK_NetDefaultSet
                0x00000000       0x20 build/default/production/_ext/1033058136/tcpip_manager.o
 .text.TCPIP_STACK_NetMulticastGet
                0x00000000        0x4 build/default/production/_ext/1033058136/tcpip_manager.o
 .text.TCPIP_STACK_NetMulticastSet
                0x00000000        0x4 build/default/production/_ext/1033058136/tcpip_manager.o
 .text.TCPIP_STACK_MacToNet
                0x00000000       0x3c build/default/production/_ext/1033058136/tcpip_manager.o
 .text.TCPIP_STACK_MacToNetIndex
                0x00000000       0x44 build/default/production/_ext/1033058136/tcpip_manager.o
 .text.TCPIP_STACK_NetIndexGet
                0x00000000        0xe build/default/production/_ext/1033058136/tcpip_manager.o
 .text.TCPIP_STACK_MACIdToNet
                0x00000000       0x48 build/default/production/_ext/1033058136/tcpip_manager.o
 .text.TCPIP_STACK_NetNameGet
                0x00000000       0x12 build/default/production/_ext/1033058136/tcpip_manager.o
 .text.TCPIP_STACK_NetAliasNameGet
                0x00000000       0x40 build/default/production/_ext/1033058136/tcpip_manager.o
 .text.TCPIP_STACK_MACObjectGet
                0x00000000        0xa build/default/production/_ext/1033058136/tcpip_manager.o
 .text.TCPIP_STACK_NetAddressGatewaySet
                0x00000000       0x1c build/default/production/_ext/1033058136/tcpip_manager.o
 .text.TCPIP_STACK_NetAddressGateway
                0x00000000       0x18 build/default/production/_ext/1033058136/tcpip_manager.o
 .text.TCPIP_STACK_NetAddressDnsPrimary
                0x00000000       0x18 build/default/production/_ext/1033058136/tcpip_manager.o
 .text.TCPIP_STACK_NetAddressDnsSecond
                0x00000000       0x18 build/default/production/_ext/1033058136/tcpip_manager.o
 .text.TCPIP_STACK_NetAddressDnsPrimarySet
                0x00000000       0x22 build/default/production/_ext/1033058136/tcpip_manager.o
 .text.TCPIP_STACK_NetAddressDnsSecondSet
                0x00000000       0x1c build/default/production/_ext/1033058136/tcpip_manager.o
 .text.TCPIP_STACK_NetAddressMacSet
                0x00000000       0x22 build/default/production/_ext/1033058136/tcpip_manager.o
 .text.TCPIP_STACK_NetBiosNameSet
                0x00000000       0x32 build/default/production/_ext/1033058136/tcpip_manager.o
 .text.TCPIP_STACK_NetMACIdGet
                0x00000000       0x18 build/default/production/_ext/1033058136/tcpip_manager.o
 .text.TCPIP_STACK_NetMACStatisticsGet
                0x00000000       0x28 build/default/production/_ext/1033058136/tcpip_manager.o
 .text.TCPIP_STACK_NetMACRegisterStatisticsGet
                0x00000000       0x28 build/default/production/_ext/1033058136/tcpip_manager.o
 .text.TCPIP_STACK_ModuleConfigGet
                0x00000000       0x4c build/default/production/_ext/1033058136/tcpip_manager.o
 .text.TCPIP_STACK_NetConfigGet
                0x00000000       0x44 build/default/production/_ext/1033058136/tcpip_manager.o
 .text.TCPIP_STACK_NetConfigSet
                0x00000000      0x1b2 build/default/production/_ext/1033058136/tcpip_manager.o
 .text.TCPIP_STACK_StringToMACId
                0x00000000       0x58 build/default/production/_ext/1033058136/tcpip_manager.o
 .text.TCPIP_STACK_NetHandleGet
                0x00000000       0x40 build/default/production/_ext/1033058136/tcpip_manager.o
 .text.TCPIP_STACK_MACIdToString
                0x00000000       0x3c build/default/production/_ext/1033058136/tcpip_manager.o
 .text.TCPIP_STACK_NetIsUp
                0x00000000       0x1c build/default/production/_ext/1033058136/tcpip_manager.o
 .text.TCPIP_STACK_AddressServiceCanStart
                0x00000000       0x16 build/default/production/_ext/1033058136/tcpip_manager.o
 .text.TCPIP_STACK_NetAddressSet
                0x00000000       0x60 build/default/production/_ext/1033058136/tcpip_manager.o
 .text._TCPIPStackAddressServiceIsRunning
                0x00000000        0xa build/default/production/_ext/1033058136/tcpip_manager.o
 .text.TCPIP_STACK_EventsPendingGet
                0x00000000       0x20 build/default/production/_ext/1033058136/tcpip_manager.o
 .text.TCPIP_STACK_NetAddress
                0x00000000       0x1c build/default/production/_ext/1033058136/tcpip_manager.o
 .text.TCPIP_STACK_NetStaticIPv6AddressGet
                0x00000000        0x4 build/default/production/_ext/1033058136/tcpip_manager.o
 .text.TCPIP_STACK_NetDefaultIPv6GatewayGet
                0x00000000        0x4 build/default/production/_ext/1033058136/tcpip_manager.o
 .text.TCPIP_STACK_NetMask
                0x00000000       0x1c build/default/production/_ext/1033058136/tcpip_manager.o
 .text.TCPIP_STACK_AddressIsOfNetUp
                0x00000000       0x34 build/default/production/_ext/1033058136/tcpip_manager.o
 .text.TCPIP_STACK_NetIsLinked
                0x00000000       0x1c build/default/production/_ext/1033058136/tcpip_manager.o
 .text.TCPIP_STACK_NetMACId
                0x00000000        0xc build/default/production/_ext/1033058136/tcpip_manager.o
 .text.TCPIP_STACK_NetToMAC
                0x00000000        0xa build/default/production/_ext/1033058136/tcpip_manager.o
 .text.TCPIP_STACK_NetAddressMac
                0x00000000       0x1c build/default/production/_ext/1033058136/tcpip_manager.o
 .text._TCPIPStackSignalHandlerSetParams
                0x00000000       0x28 build/default/production/_ext/1033058136/tcpip_manager.o
 .text.TCPIP_STACK_Deinitialize
                0x00000000       0x20 build/default/production/_ext/1033058136/tcpip_manager.o
 .text.TCPIP_STACK_NetUp
                0x00000000       0x74 build/default/production/_ext/1033058136/tcpip_manager.o
 .text.TCPIP_STACK_NetDown
                0x00000000       0x88 build/default/production/_ext/1033058136/tcpip_manager.o
 .text.TCPIP_STACK_VersionGet
                0x00000000        0x8 build/default/production/_ext/1033058136/tcpip_manager.o
 .text.TCPIP_STACK_VersionStrGet
                0x00000000        0x8 build/default/production/_ext/1033058136/tcpip_manager.o
 .text.TCPIP_MODULE_SignalFunctionRegister
                0x00000000       0x28 build/default/production/_ext/1033058136/tcpip_manager.o
 .text.TCPIP_MODULE_SignalFunctionDeregister
                0x00000000        0xe build/default/production/_ext/1033058136/tcpip_manager.o
 .text.TCPIP_MODULE_SignalGet
                0x00000000       0x2c build/default/production/_ext/1033058136/tcpip_manager.o
 .text.TCPIP_STACK_HeapHandleGet
                0x00000000       0x18 build/default/production/_ext/1033058136/tcpip_manager.o
 .text.TCPIP_STACK_HEAP_Size
                0x00000000        0xe build/default/production/_ext/1033058136/tcpip_manager.o
 .text.TCPIP_STACK_HEAP_MaxSize
                0x00000000        0xe build/default/production/_ext/1033058136/tcpip_manager.o
 .text.TCPIP_STACK_HEAP_FreeSize
                0x00000000        0xe build/default/production/_ext/1033058136/tcpip_manager.o
 .text.TCPIP_STACK_HEAP_HighWatermark
                0x00000000        0xe build/default/production/_ext/1033058136/tcpip_manager.o
 .text.TCPIP_STACK_HEAP_LastError
                0x00000000       0x10 build/default/production/_ext/1033058136/tcpip_manager.o
 .text._TCPIPStackHeapConfig
                0x00000000        0x8 build/default/production/_ext/1033058136/tcpip_manager.o
 .text.TCPIP_STACK_NetGetType
                0x00000000        0x8 build/default/production/_ext/1033058136/tcpip_manager.o
 .text          0x00000000        0x0 build/default/production/_ext/1033058136/tcpip_notify.o
 .data          0x00000000        0x0 build/default/production/_ext/1033058136/tcpip_notify.o
 .bss           0x00000000        0x0 build/default/production/_ext/1033058136/tcpip_notify.o
 .text          0x00000000        0x0 build/default/production/_ext/1033058136/tcpip_packet.o
 .data          0x00000000        0x0 build/default/production/_ext/1033058136/tcpip_packet.o
 .bss           0x00000000        0x0 build/default/production/_ext/1033058136/tcpip_packet.o
 .text.TCPIP_PKT_SegmentAppend
                0x00000000       0x14 build/default/production/_ext/1033058136/tcpip_packet.o
 .text._TCPIP_PKT_SegmentAlloc
                0x00000000       0x60 build/default/production/_ext/1033058136/tcpip_packet.o
 .text._TCPIP_PKT_SegmentFree
                0x00000000       0x1c build/default/production/_ext/1033058136/tcpip_packet.o
 .text          0x00000000        0x0 build/default/production/_ext/753841488/sys_time_h2_adapter.o
 .data          0x00000000        0x0 build/default/production/_ext/753841488/sys_time_h2_adapter.o
 .bss           0x00000000        0x0 build/default/production/_ext/753841488/sys_time_h2_adapter.o
 .text          0x00000000        0x0 build/default/production/_ext/1033058136/tcp.o
 .data          0x00000000        0x0 build/default/production/_ext/1033058136/tcp.o
 .bss           0x00000000        0x0 build/default/production/_ext/1033058136/tcp.o
 .text.TCPIP_TCP_SocketTraceSet
                0x00000000        0x4 build/default/production/_ext/1033058136/tcp.o
 .text.TCPIP_TCP_Abort
                0x00000000       0x14 build/default/production/_ext/1033058136/tcp.o
 .text.TCPIP_TCP_SocketsNumberGet
                0x00000000        0xc build/default/production/_ext/1033058136/tcp.o
 .text.TCPIP_TCP_Put
                0x00000000       0x18 build/default/production/_ext/1033058136/tcp.o
 .text.TCPIP_TCP_StringPut
                0x00000000       0x1a build/default/production/_ext/1033058136/tcp.o
 .text.TCPIP_TCP_FifoTxFreeGet
                0x00000000       0x20 build/default/production/_ext/1033058136/tcp.o
 .text.TCPIP_TCP_Get
                0x00000000        0xa build/default/production/_ext/1033058136/tcp.o
 .text.TCPIP_TCP_FifoRxFreeGet
                0x00000000       0x1e build/default/production/_ext/1033058136/tcp.o
 .text.TCPIP_TCP_Peek
                0x00000000       0x1a build/default/production/_ext/1033058136/tcp.o
 .text.TCPIP_TCP_ArrayFind
                0x00000000      0x262 build/default/production/_ext/1033058136/tcp.o
 .text.TCPIP_TCP_Find
                0x00000000       0x20 build/default/production/_ext/1033058136/tcp.o
 .text.TCPIP_TCP_SocketNetSet
                0x00000000       0x2a build/default/production/_ext/1033058136/tcp.o
 .text.TCPIP_TCP_SocketNetGet
                0x00000000       0x10 build/default/production/_ext/1033058136/tcp.o
 .text.TCPIP_TCP_SourceIPAddressSet
                0x00000000       0x2e build/default/production/_ext/1033058136/tcp.o
 .text.TCPIP_TCP_IsReady
                0x00000000        0x4 build/default/production/_ext/1033058136/tcp.o
 .text          0x00000000        0x0 build/default/production/_ext/1033058136/udp.o
 .data          0x00000000        0x0 build/default/production/_ext/1033058136/udp.o
 .bss           0x00000000        0x0 build/default/production/_ext/1033058136/udp.o
 .text.TCPIP_UDP_Put
                0x00000000       0x18 build/default/production/_ext/1033058136/udp.o
 .text.TCPIP_UDP_StringPut
                0x00000000       0x2a build/default/production/_ext/1033058136/udp.o
 .text.TCPIP_UDP_TxCountGet
                0x00000000       0x22 build/default/production/_ext/1033058136/udp.o
 .text.TCPIP_UDP_Get
                0x00000000        0xa build/default/production/_ext/1033058136/udp.o
 .text.TCPIP_UDP_SocketNetGet
                0x00000000       0x10 build/default/production/_ext/1033058136/udp.o
 .text.TCPIP_UDP_SetSplitPayload
                0x00000000       0x5e build/default/production/_ext/1033058136/udp.o
 .text.TCPIP_UDP_SocketsNumberGet
                0x00000000        0xc build/default/production/_ext/1033058136/udp.o
 .text          0x00000000        0x0 d:/00_program_installation/microchip/xc32/v2.10/bin/bin/../../lib/gcc/pic32c/6.2.1/../../../../pic32c/lib/v7e-m/fpv5/hard\libpic32c.a(data_init.o)
 .data          0x00000000        0x0 d:/00_program_installation/microchip/xc32/v2.10/bin/bin/../../lib/gcc/pic32c/6.2.1/../../../../pic32c/lib/v7e-m/fpv5/hard\libpic32c.a(data_init.o)
 .bss           0x00000000        0x0 d:/00_program_installation/microchip/xc32/v2.10/bin/bin/../../lib/gcc/pic32c/6.2.1/../../../../pic32c/lib/v7e-m/fpv5/hard\libpic32c.a(data_init.o)
 .data          0x00000000        0x0 d:/00_program_installation/microchip/xc32/v2.10/bin/bin/../../lib/gcc/pic32c/6.2.1/v7e-m/fpv5/hard\libgcc.a(_aeabi_uldivmod.o)
 .bss           0x00000000        0x0 d:/00_program_installation/microchip/xc32/v2.10/bin/bin/../../lib/gcc/pic32c/6.2.1/v7e-m/fpv5/hard\libgcc.a(_aeabi_uldivmod.o)
 .data          0x00000000        0x0 d:/00_program_installation/microchip/xc32/v2.10/bin/bin/../../lib/gcc/pic32c/6.2.1/v7e-m/fpv5/hard\libgcc.a(_udivmoddi4.o)
 .bss           0x00000000        0x0 d:/00_program_installation/microchip/xc32/v2.10/bin/bin/../../lib/gcc/pic32c/6.2.1/v7e-m/fpv5/hard\libgcc.a(_udivmoddi4.o)
 .ARM.extab     0x00000000        0x0 d:/00_program_installation/microchip/xc32/v2.10/bin/bin/../../lib/gcc/pic32c/6.2.1/v7e-m/fpv5/hard\libgcc.a(_udivmoddi4.o)
 .data          0x00000000        0x0 d:/00_program_installation/microchip/xc32/v2.10/bin/bin/../../lib/gcc/pic32c/6.2.1/v7e-m/fpv5/hard\libgcc.a(_dvmd_tls.o)
 .bss           0x00000000        0x0 d:/00_program_installation/microchip/xc32/v2.10/bin/bin/../../lib/gcc/pic32c/6.2.1/v7e-m/fpv5/hard\libgcc.a(_dvmd_tls.o)
 .text          0x00000000        0x0 d:/00_program_installation/microchip/xc32/v2.10/bin/bin/../../lib/gcc/pic32c/6.2.1/../../../../pic32c/lib/v7e-m/fpv5/hard\libc.a(lib_a-calloc.o)
 .data          0x00000000        0x0 d:/00_program_installation/microchip/xc32/v2.10/bin/bin/../../lib/gcc/pic32c/6.2.1/../../../../pic32c/lib/v7e-m/fpv5/hard\libc.a(lib_a-calloc.o)
 .bss           0x00000000        0x0 d:/00_program_installation/microchip/xc32/v2.10/bin/bin/../../lib/gcc/pic32c/6.2.1/../../../../pic32c/lib/v7e-m/fpv5/hard\libc.a(lib_a-calloc.o)
 .text          0x00000000        0x0 d:/00_program_installation/microchip/xc32/v2.10/bin/bin/../../lib/gcc/pic32c/6.2.1/../../../../pic32c/lib/v7e-m/fpv5/hard\libc.a(lib_a-callocr.o)
 .data          0x00000000        0x0 d:/00_program_installation/microchip/xc32/v2.10/bin/bin/../../lib/gcc/pic32c/6.2.1/../../../../pic32c/lib/v7e-m/fpv5/hard\libc.a(lib_a-callocr.o)
 .bss           0x00000000        0x0 d:/00_program_installation/microchip/xc32/v2.10/bin/bin/../../lib/gcc/pic32c/6.2.1/../../../../pic32c/lib/v7e-m/fpv5/hard\libc.a(lib_a-callocr.o)
 .text          0x00000000        0x0 d:/00_program_installation/microchip/xc32/v2.10/bin/bin/../../lib/gcc/pic32c/6.2.1/../../../../pic32c/lib/v7e-m/fpv5/hard\libc.a(lib_a-errno.o)
 .data          0x00000000        0x0 d:/00_program_installation/microchip/xc32/v2.10/bin/bin/../../lib/gcc/pic32c/6.2.1/../../../../pic32c/lib/v7e-m/fpv5/hard\libc.a(lib_a-errno.o)
 .bss           0x00000000        0x0 d:/00_program_installation/microchip/xc32/v2.10/bin/bin/../../lib/gcc/pic32c/6.2.1/../../../../pic32c/lib/v7e-m/fpv5/hard\libc.a(lib_a-errno.o)
 .text          0x00000000        0x0 d:/00_program_installation/microchip/xc32/v2.10/bin/bin/../../lib/gcc/pic32c/6.2.1/../../../../pic32c/lib/v7e-m/fpv5/hard\libc.a(lib_a-exit.o)
 .data          0x00000000        0x0 d:/00_program_installation/microchip/xc32/v2.10/bin/bin/../../lib/gcc/pic32c/6.2.1/../../../../pic32c/lib/v7e-m/fpv5/hard\libc.a(lib_a-exit.o)
 .bss           0x00000000        0x0 d:/00_program_installation/microchip/xc32/v2.10/bin/bin/../../lib/gcc/pic32c/6.2.1/../../../../pic32c/lib/v7e-m/fpv5/hard\libc.a(lib_a-exit.o)
 .text.exit     0x00000000       0x20 d:/00_program_installation/microchip/xc32/v2.10/bin/bin/../../lib/gcc/pic32c/6.2.1/../../../../pic32c/lib/v7e-m/fpv5/hard\libc.a(lib_a-exit.o)
 .debug_info    0x00000000      0xeaa d:/00_program_installation/microchip/xc32/v2.10/bin/bin/../../lib/gcc/pic32c/6.2.1/../../../../pic32c/lib/v7e-m/fpv5/hard\libc.a(lib_a-exit.o)
 .debug_abbrev  0x00000000      0x1e9 d:/00_program_installation/microchip/xc32/v2.10/bin/bin/../../lib/gcc/pic32c/6.2.1/../../../../pic32c/lib/v7e-m/fpv5/hard\libc.a(lib_a-exit.o)
 .debug_loc     0x00000000       0x3e d:/00_program_installation/microchip/xc32/v2.10/bin/bin/../../lib/gcc/pic32c/6.2.1/../../../../pic32c/lib/v7e-m/fpv5/hard\libc.a(lib_a-exit.o)
 .debug_aranges
                0x00000000       0x20 d:/00_program_installation/microchip/xc32/v2.10/bin/bin/../../lib/gcc/pic32c/6.2.1/../../../../pic32c/lib/v7e-m/fpv5/hard\libc.a(lib_a-exit.o)
 .debug_ranges  0x00000000       0x10 d:/00_program_installation/microchip/xc32/v2.10/bin/bin/../../lib/gcc/pic32c/6.2.1/../../../../pic32c/lib/v7e-m/fpv5/hard\libc.a(lib_a-exit.o)
 .debug_line    0x00000000      0x23c d:/00_program_installation/microchip/xc32/v2.10/bin/bin/../../lib/gcc/pic32c/6.2.1/../../../../pic32c/lib/v7e-m/fpv5/hard\libc.a(lib_a-exit.o)
 .debug_str     0x00000000       0x1f d:/00_program_installation/microchip/xc32/v2.10/bin/bin/../../lib/gcc/pic32c/6.2.1/../../../../pic32c/lib/v7e-m/fpv5/hard\libc.a(lib_a-exit.o)
 .comment       0x00000000       0x3d d:/00_program_installation/microchip/xc32/v2.10/bin/bin/../../lib/gcc/pic32c/6.2.1/../../../../pic32c/lib/v7e-m/fpv5/hard\libc.a(lib_a-exit.o)
 .debug_frame   0x00000000       0x28 d:/00_program_installation/microchip/xc32/v2.10/bin/bin/../../lib/gcc/pic32c/6.2.1/../../../../pic32c/lib/v7e-m/fpv5/hard\libc.a(lib_a-exit.o)
 .ARM.attributes
                0x00000000       0x32 d:/00_program_installation/microchip/xc32/v2.10/bin/bin/../../lib/gcc/pic32c/6.2.1/../../../../pic32c/lib/v7e-m/fpv5/hard\libc.a(lib_a-exit.o)
 .text          0x00000000        0x0 d:/00_program_installation/microchip/xc32/v2.10/bin/bin/../../lib/gcc/pic32c/6.2.1/../../../../pic32c/lib/v7e-m/fpv5/hard\libc.a(lib_a-impure.o)
 .data          0x00000000        0x0 d:/00_program_installation/microchip/xc32/v2.10/bin/bin/../../lib/gcc/pic32c/6.2.1/../../../../pic32c/lib/v7e-m/fpv5/hard\libc.a(lib_a-impure.o)
 .bss           0x00000000        0x0 d:/00_program_installation/microchip/xc32/v2.10/bin/bin/../../lib/gcc/pic32c/6.2.1/../../../../pic32c/lib/v7e-m/fpv5/hard\libc.a(lib_a-impure.o)
 .text          0x00000000        0x0 d:/00_program_installation/microchip/xc32/v2.10/bin/bin/../../lib/gcc/pic32c/6.2.1/../../../../pic32c/lib/v7e-m/fpv5/hard\libc.a(lib_a-init.o)
 .data          0x00000000        0x0 d:/00_program_installation/microchip/xc32/v2.10/bin/bin/../../lib/gcc/pic32c/6.2.1/../../../../pic32c/lib/v7e-m/fpv5/hard\libc.a(lib_a-init.o)
 .bss           0x00000000        0x0 d:/00_program_installation/microchip/xc32/v2.10/bin/bin/../../lib/gcc/pic32c/6.2.1/../../../../pic32c/lib/v7e-m/fpv5/hard\libc.a(lib_a-init.o)
 .text          0x00000000        0x0 d:/00_program_installation/microchip/xc32/v2.10/bin/bin/../../lib/gcc/pic32c/6.2.1/../../../../pic32c/lib/v7e-m/fpv5/hard\libc.a(lib_a-locale.o)
 .data          0x00000000        0x0 d:/00_program_installation/microchip/xc32/v2.10/bin/bin/../../lib/gcc/pic32c/6.2.1/../../../../pic32c/lib/v7e-m/fpv5/hard\libc.a(lib_a-locale.o)
 .bss           0x00000000        0x0 d:/00_program_installation/microchip/xc32/v2.10/bin/bin/../../lib/gcc/pic32c/6.2.1/../../../../pic32c/lib/v7e-m/fpv5/hard\libc.a(lib_a-locale.o)
 .text._setlocale_r
                0x00000000       0x40 d:/00_program_installation/microchip/xc32/v2.10/bin/bin/../../lib/gcc/pic32c/6.2.1/../../../../pic32c/lib/v7e-m/fpv5/hard\libc.a(lib_a-locale.o)
 .text.__locale_ctype_ptr_l
                0x00000000        0x8 d:/00_program_installation/microchip/xc32/v2.10/bin/bin/../../lib/gcc/pic32c/6.2.1/../../../../pic32c/lib/v7e-m/fpv5/hard\libc.a(lib_a-locale.o)
 .text.setlocale
                0x00000000       0x10 d:/00_program_installation/microchip/xc32/v2.10/bin/bin/../../lib/gcc/pic32c/6.2.1/../../../../pic32c/lib/v7e-m/fpv5/hard\libc.a(lib_a-locale.o)
 .bss._PathLocale
                0x00000000        0x4 d:/00_program_installation/microchip/xc32/v2.10/bin/bin/../../lib/gcc/pic32c/6.2.1/../../../../pic32c/lib/v7e-m/fpv5/hard\libc.a(lib_a-locale.o)
 .text          0x00000000        0x0 d:/00_program_installation/microchip/xc32/v2.10/bin/bin/../../lib/gcc/pic32c/6.2.1/../../../../pic32c/lib/v7e-m/fpv5/hard\libc.a(lib_a-malloc.o)
 .data          0x00000000        0x0 d:/00_program_installation/microchip/xc32/v2.10/bin/bin/../../lib/gcc/pic32c/6.2.1/../../../../pic32c/lib/v7e-m/fpv5/hard\libc.a(lib_a-malloc.o)
 .bss           0x00000000        0x0 d:/00_program_installation/microchip/xc32/v2.10/bin/bin/../../lib/gcc/pic32c/6.2.1/../../../../pic32c/lib/v7e-m/fpv5/hard\libc.a(lib_a-malloc.o)
 .text          0x00000000        0x0 d:/00_program_installation/microchip/xc32/v2.10/bin/bin/../../lib/gcc/pic32c/6.2.1/../../../../pic32c/lib/v7e-m/fpv5/hard\libc.a(lib_a-mallocr.o)
 .data          0x00000000        0x0 d:/00_program_installation/microchip/xc32/v2.10/bin/bin/../../lib/gcc/pic32c/6.2.1/../../../../pic32c/lib/v7e-m/fpv5/hard\libc.a(lib_a-mallocr.o)
 .bss           0x00000000        0x0 d:/00_program_installation/microchip/xc32/v2.10/bin/bin/../../lib/gcc/pic32c/6.2.1/../../../../pic32c/lib/v7e-m/fpv5/hard\libc.a(lib_a-mallocr.o)
 .text          0x00000000        0x0 d:/00_program_installation/microchip/xc32/v2.10/bin/bin/../../lib/gcc/pic32c/6.2.1/../../../../pic32c/lib/v7e-m/fpv5/hard\libc.a(lib_a-mbtowc_r.o)
 .data          0x00000000        0x0 d:/00_program_installation/microchip/xc32/v2.10/bin/bin/../../lib/gcc/pic32c/6.2.1/../../../../pic32c/lib/v7e-m/fpv5/hard\libc.a(lib_a-mbtowc_r.o)
 .bss           0x00000000        0x0 d:/00_program_installation/microchip/xc32/v2.10/bin/bin/../../lib/gcc/pic32c/6.2.1/../../../../pic32c/lib/v7e-m/fpv5/hard\libc.a(lib_a-mbtowc_r.o)
 .text._mbtowc_r
                0x00000000       0x24 d:/00_program_installation/microchip/xc32/v2.10/bin/bin/../../lib/gcc/pic32c/6.2.1/../../../../pic32c/lib/v7e-m/fpv5/hard\libc.a(lib_a-mbtowc_r.o)
 .text          0x00000000        0x0 d:/00_program_installation/microchip/xc32/v2.10/bin/bin/../../lib/gcc/pic32c/6.2.1/../../../../pic32c/lib/v7e-m/fpv5/hard\libc.a(lib_a-memcmp.o)
 .data          0x00000000        0x0 d:/00_program_installation/microchip/xc32/v2.10/bin/bin/../../lib/gcc/pic32c/6.2.1/../../../../pic32c/lib/v7e-m/fpv5/hard\libc.a(lib_a-memcmp.o)
 .bss           0x00000000        0x0 d:/00_program_installation/microchip/xc32/v2.10/bin/bin/../../lib/gcc/pic32c/6.2.1/../../../../pic32c/lib/v7e-m/fpv5/hard\libc.a(lib_a-memcmp.o)
 .data          0x00000000        0x0 d:/00_program_installation/microchip/xc32/v2.10/bin/bin/../../lib/gcc/pic32c/6.2.1/../../../../pic32c/lib/v7e-m/fpv5/hard\libc.a(lib_a-memcpy.o)
 .bss           0x00000000        0x0 d:/00_program_installation/microchip/xc32/v2.10/bin/bin/../../lib/gcc/pic32c/6.2.1/../../../../pic32c/lib/v7e-m/fpv5/hard\libc.a(lib_a-memcpy.o)
 .text          0x00000000        0x0 d:/00_program_installation/microchip/xc32/v2.10/bin/bin/../../lib/gcc/pic32c/6.2.1/../../../../pic32c/lib/v7e-m/fpv5/hard\libc.a(lib_a-memset.o)
 .data          0x00000000        0x0 d:/00_program_installation/microchip/xc32/v2.10/bin/bin/../../lib/gcc/pic32c/6.2.1/../../../../pic32c/lib/v7e-m/fpv5/hard\libc.a(lib_a-memset.o)
 .bss           0x00000000        0x0 d:/00_program_installation/microchip/xc32/v2.10/bin/bin/../../lib/gcc/pic32c/6.2.1/../../../../pic32c/lib/v7e-m/fpv5/hard\libc.a(lib_a-memset.o)
 .text          0x00000000        0x0 d:/00_program_installation/microchip/xc32/v2.10/bin/bin/../../lib/gcc/pic32c/6.2.1/../../../../pic32c/lib/v7e-m/fpv5/hard\libc.a(lib_a-mlock.o)
 .data          0x00000000        0x0 d:/00_program_installation/microchip/xc32/v2.10/bin/bin/../../lib/gcc/pic32c/6.2.1/../../../../pic32c/lib/v7e-m/fpv5/hard\libc.a(lib_a-mlock.o)
 .bss           0x00000000        0x0 d:/00_program_installation/microchip/xc32/v2.10/bin/bin/../../lib/gcc/pic32c/6.2.1/../../../../pic32c/lib/v7e-m/fpv5/hard\libc.a(lib_a-mlock.o)
 .text          0x00000000        0x0 d:/00_program_installation/microchip/xc32/v2.10/bin/bin/../../lib/gcc/pic32c/6.2.1/../../../../pic32c/lib/v7e-m/fpv5/hard\libc.a(lib_a-rand.o)
 .data          0x00000000        0x0 d:/00_program_installation/microchip/xc32/v2.10/bin/bin/../../lib/gcc/pic32c/6.2.1/../../../../pic32c/lib/v7e-m/fpv5/hard\libc.a(lib_a-rand.o)
 .bss           0x00000000        0x0 d:/00_program_installation/microchip/xc32/v2.10/bin/bin/../../lib/gcc/pic32c/6.2.1/../../../../pic32c/lib/v7e-m/fpv5/hard\libc.a(lib_a-rand.o)
 .text.srand    0x00000000       0x14 d:/00_program_installation/microchip/xc32/v2.10/bin/bin/../../lib/gcc/pic32c/6.2.1/../../../../pic32c/lib/v7e-m/fpv5/hard\libc.a(lib_a-rand.o)
 .text          0x00000000        0x0 d:/00_program_installation/microchip/xc32/v2.10/bin/bin/../../lib/gcc/pic32c/6.2.1/../../../../pic32c/lib/v7e-m/fpv5/hard\libc.a(lib_a-sbrkr.o)
 .data          0x00000000        0x0 d:/00_program_installation/microchip/xc32/v2.10/bin/bin/../../lib/gcc/pic32c/6.2.1/../../../../pic32c/lib/v7e-m/fpv5/hard\libc.a(lib_a-sbrkr.o)
 .bss           0x00000000        0x0 d:/00_program_installation/microchip/xc32/v2.10/bin/bin/../../lib/gcc/pic32c/6.2.1/../../../../pic32c/lib/v7e-m/fpv5/hard\libc.a(lib_a-sbrkr.o)
 .data          0x00000000        0x0 d:/00_program_installation/microchip/xc32/v2.10/bin/bin/../../lib/gcc/pic32c/6.2.1/../../../../pic32c/lib/v7e-m/fpv5/hard\libc.a(lib_a-strcmp.o)
 .bss           0x00000000        0x0 d:/00_program_installation/microchip/xc32/v2.10/bin/bin/../../lib/gcc/pic32c/6.2.1/../../../../pic32c/lib/v7e-m/fpv5/hard\libc.a(lib_a-strcmp.o)
 .text          0x00000000        0x0 d:/00_program_installation/microchip/xc32/v2.10/bin/bin/../../lib/gcc/pic32c/6.2.1/../../../../pic32c/lib/v7e-m/fpv5/hard\libc.a(lib_a-strcpy.o)
 .data          0x00000000        0x0 d:/00_program_installation/microchip/xc32/v2.10/bin/bin/../../lib/gcc/pic32c/6.2.1/../../../../pic32c/lib/v7e-m/fpv5/hard\libc.a(lib_a-strcpy.o)
 .bss           0x00000000        0x0 d:/00_program_installation/microchip/xc32/v2.10/bin/bin/../../lib/gcc/pic32c/6.2.1/../../../../pic32c/lib/v7e-m/fpv5/hard\libc.a(lib_a-strcpy.o)
 .text.strcpy   0x00000000       0xbc d:/00_program_installation/microchip/xc32/v2.10/bin/bin/../../lib/gcc/pic32c/6.2.1/../../../../pic32c/lib/v7e-m/fpv5/hard\libc.a(lib_a-strcpy.o)
 .debug_info    0x00000000      0xdfa d:/00_program_installation/microchip/xc32/v2.10/bin/bin/../../lib/gcc/pic32c/6.2.1/../../../../pic32c/lib/v7e-m/fpv5/hard\libc.a(lib_a-strcpy.o)
 .debug_abbrev  0x00000000      0x19c d:/00_program_installation/microchip/xc32/v2.10/bin/bin/../../lib/gcc/pic32c/6.2.1/../../../../pic32c/lib/v7e-m/fpv5/hard\libc.a(lib_a-strcpy.o)
 .debug_loc     0x00000000       0x21 d:/00_program_installation/microchip/xc32/v2.10/bin/bin/../../lib/gcc/pic32c/6.2.1/../../../../pic32c/lib/v7e-m/fpv5/hard\libc.a(lib_a-strcpy.o)
 .debug_aranges
                0x00000000       0x20 d:/00_program_installation/microchip/xc32/v2.10/bin/bin/../../lib/gcc/pic32c/6.2.1/../../../../pic32c/lib/v7e-m/fpv5/hard\libc.a(lib_a-strcpy.o)
 .debug_ranges  0x00000000       0x10 d:/00_program_installation/microchip/xc32/v2.10/bin/bin/../../lib/gcc/pic32c/6.2.1/../../../../pic32c/lib/v7e-m/fpv5/hard\libc.a(lib_a-strcpy.o)
 .debug_line    0x00000000      0x224 d:/00_program_installation/microchip/xc32/v2.10/bin/bin/../../lib/gcc/pic32c/6.2.1/../../../../pic32c/lib/v7e-m/fpv5/hard\libc.a(lib_a-strcpy.o)
 .debug_str     0x00000000        0xe d:/00_program_installation/microchip/xc32/v2.10/bin/bin/../../lib/gcc/pic32c/6.2.1/../../../../pic32c/lib/v7e-m/fpv5/hard\libc.a(lib_a-strcpy.o)
 .comment       0x00000000       0x3d d:/00_program_installation/microchip/xc32/v2.10/bin/bin/../../lib/gcc/pic32c/6.2.1/../../../../pic32c/lib/v7e-m/fpv5/hard\libc.a(lib_a-strcpy.o)
 .debug_frame   0x00000000       0x20 d:/00_program_installation/microchip/xc32/v2.10/bin/bin/../../lib/gcc/pic32c/6.2.1/../../../../pic32c/lib/v7e-m/fpv5/hard\libc.a(lib_a-strcpy.o)
 .ARM.attributes
                0x00000000       0x32 d:/00_program_installation/microchip/xc32/v2.10/bin/bin/../../lib/gcc/pic32c/6.2.1/../../../../pic32c/lib/v7e-m/fpv5/hard\libc.a(lib_a-strcpy.o)
 .data          0x00000000        0x0 d:/00_program_installation/microchip/xc32/v2.10/bin/bin/../../lib/gcc/pic32c/6.2.1/../../../../pic32c/lib/v7e-m/fpv5/hard\libc.a(lib_a-strlen.o)
 .bss           0x00000000        0x0 d:/00_program_installation/microchip/xc32/v2.10/bin/bin/../../lib/gcc/pic32c/6.2.1/../../../../pic32c/lib/v7e-m/fpv5/hard\libc.a(lib_a-strlen.o)
 .text          0x00000000        0x0 d:/00_program_installation/microchip/xc32/v2.10/bin/bin/../../lib/gcc/pic32c/6.2.1/../../../../pic32c/lib/v7e-m/fpv5/hard\libc.a(lib_a-strncpy.o)
 .data          0x00000000        0x0 d:/00_program_installation/microchip/xc32/v2.10/bin/bin/../../lib/gcc/pic32c/6.2.1/../../../../pic32c/lib/v7e-m/fpv5/hard\libc.a(lib_a-strncpy.o)
 .bss           0x00000000        0x0 d:/00_program_installation/microchip/xc32/v2.10/bin/bin/../../lib/gcc/pic32c/6.2.1/../../../../pic32c/lib/v7e-m/fpv5/hard\libc.a(lib_a-strncpy.o)
 .text          0x00000000        0x0 d:/00_program_installation/microchip/xc32/v2.10/bin/bin/../../lib/gcc/pic32c/6.2.1/../../../../pic32c/lib/v7e-m/fpv5/hard\libc.a(lib_a-strtol.o)
 .data          0x00000000        0x0 d:/00_program_installation/microchip/xc32/v2.10/bin/bin/../../lib/gcc/pic32c/6.2.1/../../../../pic32c/lib/v7e-m/fpv5/hard\libc.a(lib_a-strtol.o)
 .bss           0x00000000        0x0 d:/00_program_installation/microchip/xc32/v2.10/bin/bin/../../lib/gcc/pic32c/6.2.1/../../../../pic32c/lib/v7e-m/fpv5/hard\libc.a(lib_a-strtol.o)
 .text._strtol_l.isra.0
                0x00000000      0x128 d:/00_program_installation/microchip/xc32/v2.10/bin/bin/../../lib/gcc/pic32c/6.2.1/../../../../pic32c/lib/v7e-m/fpv5/hard\libc.a(lib_a-strtol.o)
 .text._strtol_r
                0x00000000       0x24 d:/00_program_installation/microchip/xc32/v2.10/bin/bin/../../lib/gcc/pic32c/6.2.1/../../../../pic32c/lib/v7e-m/fpv5/hard\libc.a(lib_a-strtol.o)
 .text.strtol_l
                0x00000000       0x20 d:/00_program_installation/microchip/xc32/v2.10/bin/bin/../../lib/gcc/pic32c/6.2.1/../../../../pic32c/lib/v7e-m/fpv5/hard\libc.a(lib_a-strtol.o)
 .text.strtol   0x00000000       0x2c d:/00_program_installation/microchip/xc32/v2.10/bin/bin/../../lib/gcc/pic32c/6.2.1/../../../../pic32c/lib/v7e-m/fpv5/hard\libc.a(lib_a-strtol.o)
 .debug_info    0x00000000     0x1934 d:/00_program_installation/microchip/xc32/v2.10/bin/bin/../../lib/gcc/pic32c/6.2.1/../../../../pic32c/lib/v7e-m/fpv5/hard\libc.a(lib_a-strtol.o)
 .debug_abbrev  0x00000000      0x25c d:/00_program_installation/microchip/xc32/v2.10/bin/bin/../../lib/gcc/pic32c/6.2.1/../../../../pic32c/lib/v7e-m/fpv5/hard\libc.a(lib_a-strtol.o)
 .debug_loc     0x00000000      0x58d d:/00_program_installation/microchip/xc32/v2.10/bin/bin/../../lib/gcc/pic32c/6.2.1/../../../../pic32c/lib/v7e-m/fpv5/hard\libc.a(lib_a-strtol.o)
 .debug_aranges
                0x00000000       0x38 d:/00_program_installation/microchip/xc32/v2.10/bin/bin/../../lib/gcc/pic32c/6.2.1/../../../../pic32c/lib/v7e-m/fpv5/hard\libc.a(lib_a-strtol.o)
 .debug_ranges  0x00000000       0x60 d:/00_program_installation/microchip/xc32/v2.10/bin/bin/../../lib/gcc/pic32c/6.2.1/../../../../pic32c/lib/v7e-m/fpv5/hard\libc.a(lib_a-strtol.o)
 .debug_line    0x00000000      0x389 d:/00_program_installation/microchip/xc32/v2.10/bin/bin/../../lib/gcc/pic32c/6.2.1/../../../../pic32c/lib/v7e-m/fpv5/hard\libc.a(lib_a-strtol.o)
 .debug_str     0x00000000      0x12e d:/00_program_installation/microchip/xc32/v2.10/bin/bin/../../lib/gcc/pic32c/6.2.1/../../../../pic32c/lib/v7e-m/fpv5/hard\libc.a(lib_a-strtol.o)
 .comment       0x00000000       0x3d d:/00_program_installation/microchip/xc32/v2.10/bin/bin/../../lib/gcc/pic32c/6.2.1/../../../../pic32c/lib/v7e-m/fpv5/hard\libc.a(lib_a-strtol.o)
 .debug_frame   0x00000000       0x98 d:/00_program_installation/microchip/xc32/v2.10/bin/bin/../../lib/gcc/pic32c/6.2.1/../../../../pic32c/lib/v7e-m/fpv5/hard\libc.a(lib_a-strtol.o)
 .ARM.attributes
                0x00000000       0x32 d:/00_program_installation/microchip/xc32/v2.10/bin/bin/../../lib/gcc/pic32c/6.2.1/../../../../pic32c/lib/v7e-m/fpv5/hard\libc.a(lib_a-strtol.o)
 .text          0x00000000        0x0 d:/00_program_installation/microchip/xc32/v2.10/bin/bin/../../lib/gcc/pic32c/6.2.1/../../../../pic32c/lib/v7e-m/fpv5/hard\libc.a(lib_a-wctomb_r.o)
 .data          0x00000000        0x0 d:/00_program_installation/microchip/xc32/v2.10/bin/bin/../../lib/gcc/pic32c/6.2.1/../../../../pic32c/lib/v7e-m/fpv5/hard\libc.a(lib_a-wctomb_r.o)
 .bss           0x00000000        0x0 d:/00_program_installation/microchip/xc32/v2.10/bin/bin/../../lib/gcc/pic32c/6.2.1/../../../../pic32c/lib/v7e-m/fpv5/hard\libc.a(lib_a-wctomb_r.o)
 .text._wctomb_r
                0x00000000       0x24 d:/00_program_installation/microchip/xc32/v2.10/bin/bin/../../lib/gcc/pic32c/6.2.1/../../../../pic32c/lib/v7e-m/fpv5/hard\libc.a(lib_a-wctomb_r.o)
 .text          0x00000000        0x0 d:/00_program_installation/microchip/xc32/v2.10/bin/bin/../../lib/gcc/pic32c/6.2.1/../../../../pic32c/lib/v7e-m/fpv5/hard\libc.a(snprintf.cdnopsuxX.o)
 .data          0x00000000        0x0 d:/00_program_installation/microchip/xc32/v2.10/bin/bin/../../lib/gcc/pic32c/6.2.1/../../../../pic32c/lib/v7e-m/fpv5/hard\libc.a(snprintf.cdnopsuxX.o)
 .bss           0x00000000        0x0 d:/00_program_installation/microchip/xc32/v2.10/bin/bin/../../lib/gcc/pic32c/6.2.1/../../../../pic32c/lib/v7e-m/fpv5/hard\libc.a(snprintf.cdnopsuxX.o)
 .text          0x00000000        0x0 d:/00_program_installation/microchip/xc32/v2.10/bin/bin/../../lib/gcc/pic32c/6.2.1/../../../../pic32c/lib/v7e-m/fpv5/hard\libc.a(sprintf.cdnopsuxX.o)
 .data          0x00000000        0x0 d:/00_program_installation/microchip/xc32/v2.10/bin/bin/../../lib/gcc/pic32c/6.2.1/../../../../pic32c/lib/v7e-m/fpv5/hard\libc.a(sprintf.cdnopsuxX.o)
 .bss           0x00000000        0x0 d:/00_program_installation/microchip/xc32/v2.10/bin/bin/../../lib/gcc/pic32c/6.2.1/../../../../pic32c/lib/v7e-m/fpv5/hard\libc.a(sprintf.cdnopsuxX.o)
 .text._sprintf_cdnopsuxX
                0x00000000       0x44 d:/00_program_installation/microchip/xc32/v2.10/bin/bin/../../lib/gcc/pic32c/6.2.1/../../../../pic32c/lib/v7e-m/fpv5/hard\libc.a(sprintf.cdnopsuxX.o)
 .debug_info    0x00000000      0xf2a d:/00_program_installation/microchip/xc32/v2.10/bin/bin/../../lib/gcc/pic32c/6.2.1/../../../../pic32c/lib/v7e-m/fpv5/hard\libc.a(sprintf.cdnopsuxX.o)
 .debug_abbrev  0x00000000      0x1ea d:/00_program_installation/microchip/xc32/v2.10/bin/bin/../../lib/gcc/pic32c/6.2.1/../../../../pic32c/lib/v7e-m/fpv5/hard\libc.a(sprintf.cdnopsuxX.o)
 .debug_loc     0x00000000       0x89 d:/00_program_installation/microchip/xc32/v2.10/bin/bin/../../lib/gcc/pic32c/6.2.1/../../../../pic32c/lib/v7e-m/fpv5/hard\libc.a(sprintf.cdnopsuxX.o)
 .debug_aranges
                0x00000000       0x20 d:/00_program_installation/microchip/xc32/v2.10/bin/bin/../../lib/gcc/pic32c/6.2.1/../../../../pic32c/lib/v7e-m/fpv5/hard\libc.a(sprintf.cdnopsuxX.o)
 .debug_ranges  0x00000000       0x10 d:/00_program_installation/microchip/xc32/v2.10/bin/bin/../../lib/gcc/pic32c/6.2.1/../../../../pic32c/lib/v7e-m/fpv5/hard\libc.a(sprintf.cdnopsuxX.o)
 .debug_line    0x00000000      0x1e8 d:/00_program_installation/microchip/xc32/v2.10/bin/bin/../../lib/gcc/pic32c/6.2.1/../../../../pic32c/lib/v7e-m/fpv5/hard\libc.a(sprintf.cdnopsuxX.o)
 .debug_str     0x00000000       0x22 d:/00_program_installation/microchip/xc32/v2.10/bin/bin/../../lib/gcc/pic32c/6.2.1/../../../../pic32c/lib/v7e-m/fpv5/hard\libc.a(sprintf.cdnopsuxX.o)
 .comment       0x00000000       0x3d d:/00_program_installation/microchip/xc32/v2.10/bin/bin/../../lib/gcc/pic32c/6.2.1/../../../../pic32c/lib/v7e-m/fpv5/hard\libc.a(sprintf.cdnopsuxX.o)
 .debug_frame   0x00000000       0x4c d:/00_program_installation/microchip/xc32/v2.10/bin/bin/../../lib/gcc/pic32c/6.2.1/../../../../pic32c/lib/v7e-m/fpv5/hard\libc.a(sprintf.cdnopsuxX.o)
 .ARM.attributes
                0x00000000       0x32 d:/00_program_installation/microchip/xc32/v2.10/bin/bin/../../lib/gcc/pic32c/6.2.1/../../../../pic32c/lib/v7e-m/fpv5/hard\libc.a(sprintf.cdnopsuxX.o)
 .text          0x00000000        0x0 d:/00_program_installation/microchip/xc32/v2.10/bin/bin/../../lib/gcc/pic32c/6.2.1/../../../../pic32c/lib/v7e-m/fpv5/hard\libc.a(vfprintf.cdnopsuxX.o)
 .data          0x00000000        0x0 d:/00_program_installation/microchip/xc32/v2.10/bin/bin/../../lib/gcc/pic32c/6.2.1/../../../../pic32c/lib/v7e-m/fpv5/hard\libc.a(vfprintf.cdnopsuxX.o)
 .bss           0x00000000        0x0 d:/00_program_installation/microchip/xc32/v2.10/bin/bin/../../lib/gcc/pic32c/6.2.1/../../../../pic32c/lib/v7e-m/fpv5/hard\libc.a(vfprintf.cdnopsuxX.o)
 .text          0x00000000        0x0 d:/00_program_installation/microchip/xc32/v2.10/bin/bin/../../lib/gcc/pic32c/6.2.1/../../../../pic32c/lib/v7e-m/fpv5/hard\libc.a(vsnprintf.cdnopsuxX.o)
 .data          0x00000000        0x0 d:/00_program_installation/microchip/xc32/v2.10/bin/bin/../../lib/gcc/pic32c/6.2.1/../../../../pic32c/lib/v7e-m/fpv5/hard\libc.a(vsnprintf.cdnopsuxX.o)
 .bss           0x00000000        0x0 d:/00_program_installation/microchip/xc32/v2.10/bin/bin/../../lib/gcc/pic32c/6.2.1/../../../../pic32c/lib/v7e-m/fpv5/hard\libc.a(vsnprintf.cdnopsuxX.o)
 .text          0x00000000        0x0 d:/00_program_installation/microchip/xc32/v2.10/bin/bin/../../lib/gcc/pic32c/6.2.1/../../../../pic32c/lib/v7e-m/fpv5/hard\libc.a(lib_a-__call_atexit.o)
 .data          0x00000000        0x0 d:/00_program_installation/microchip/xc32/v2.10/bin/bin/../../lib/gcc/pic32c/6.2.1/../../../../pic32c/lib/v7e-m/fpv5/hard\libc.a(lib_a-__call_atexit.o)
 .bss           0x00000000        0x0 d:/00_program_installation/microchip/xc32/v2.10/bin/bin/../../lib/gcc/pic32c/6.2.1/../../../../pic32c/lib/v7e-m/fpv5/hard\libc.a(lib_a-__call_atexit.o)
 .text.__call_exitprocs
                0x00000000       0xd4 d:/00_program_installation/microchip/xc32/v2.10/bin/bin/../../lib/gcc/pic32c/6.2.1/../../../../pic32c/lib/v7e-m/fpv5/hard\libc.a(lib_a-__call_atexit.o)
 .text          0x00000000        0x0 d:/00_program_installation/microchip/xc32/v2.10/bin/bin/../../lib/gcc/pic32c/6.2.1/../../../../pic32c/lib/v7e-m/fpv5/hard\libc.a(lib_a-atexit.o)
 .data          0x00000000        0x0 d:/00_program_installation/microchip/xc32/v2.10/bin/bin/../../lib/gcc/pic32c/6.2.1/../../../../pic32c/lib/v7e-m/fpv5/hard\libc.a(lib_a-atexit.o)
 .bss           0x00000000        0x0 d:/00_program_installation/microchip/xc32/v2.10/bin/bin/../../lib/gcc/pic32c/6.2.1/../../../../pic32c/lib/v7e-m/fpv5/hard\libc.a(lib_a-atexit.o)
 .text          0x00000000        0x0 d:/00_program_installation/microchip/xc32/v2.10/bin/bin/../../lib/gcc/pic32c/6.2.1/../../../../pic32c/lib/v7e-m/fpv5/hard\libc.a(lib_a-ctype_.o)
 .data          0x00000000        0x0 d:/00_program_installation/microchip/xc32/v2.10/bin/bin/../../lib/gcc/pic32c/6.2.1/../../../../pic32c/lib/v7e-m/fpv5/hard\libc.a(lib_a-ctype_.o)
 .bss           0x00000000        0x0 d:/00_program_installation/microchip/xc32/v2.10/bin/bin/../../lib/gcc/pic32c/6.2.1/../../../../pic32c/lib/v7e-m/fpv5/hard\libc.a(lib_a-ctype_.o)
 .text          0x00000000        0x0 d:/00_program_installation/microchip/xc32/v2.10/bin/bin/../../lib/gcc/pic32c/6.2.1/../../../../pic32c/lib/v7e-m/fpv5/hard\libc.a(lib_a-fflush.o)
 .data          0x00000000        0x0 d:/00_program_installation/microchip/xc32/v2.10/bin/bin/../../lib/gcc/pic32c/6.2.1/../../../../pic32c/lib/v7e-m/fpv5/hard\libc.a(lib_a-fflush.o)
 .bss           0x00000000        0x0 d:/00_program_installation/microchip/xc32/v2.10/bin/bin/../../lib/gcc/pic32c/6.2.1/../../../../pic32c/lib/v7e-m/fpv5/hard\libc.a(lib_a-fflush.o)
 .text.fflush   0x00000000       0x24 d:/00_program_installation/microchip/xc32/v2.10/bin/bin/../../lib/gcc/pic32c/6.2.1/../../../../pic32c/lib/v7e-m/fpv5/hard\libc.a(lib_a-fflush.o)
 .text          0x00000000        0x0 d:/00_program_installation/microchip/xc32/v2.10/bin/bin/../../lib/gcc/pic32c/6.2.1/../../../../pic32c/lib/v7e-m/fpv5/hard\libc.a(lib_a-findfp.o)
 .data          0x00000000        0x0 d:/00_program_installation/microchip/xc32/v2.10/bin/bin/../../lib/gcc/pic32c/6.2.1/../../../../pic32c/lib/v7e-m/fpv5/hard\libc.a(lib_a-findfp.o)
 .bss           0x00000000        0x0 d:/00_program_installation/microchip/xc32/v2.10/bin/bin/../../lib/gcc/pic32c/6.2.1/../../../../pic32c/lib/v7e-m/fpv5/hard\libc.a(lib_a-findfp.o)
 .text.__fp_unlock
                0x00000000        0x4 d:/00_program_installation/microchip/xc32/v2.10/bin/bin/../../lib/gcc/pic32c/6.2.1/../../../../pic32c/lib/v7e-m/fpv5/hard\libc.a(lib_a-findfp.o)
 .text.__fp_lock
                0x00000000        0x4 d:/00_program_installation/microchip/xc32/v2.10/bin/bin/../../lib/gcc/pic32c/6.2.1/../../../../pic32c/lib/v7e-m/fpv5/hard\libc.a(lib_a-findfp.o)
 .text.__sfmoreglue
                0x00000000       0x30 d:/00_program_installation/microchip/xc32/v2.10/bin/bin/../../lib/gcc/pic32c/6.2.1/../../../../pic32c/lib/v7e-m/fpv5/hard\libc.a(lib_a-findfp.o)
 .text.__sfp    0x00000000       0x8c d:/00_program_installation/microchip/xc32/v2.10/bin/bin/../../lib/gcc/pic32c/6.2.1/../../../../pic32c/lib/v7e-m/fpv5/hard\libc.a(lib_a-findfp.o)
 .text._cleanup
                0x00000000       0x14 d:/00_program_installation/microchip/xc32/v2.10/bin/bin/../../lib/gcc/pic32c/6.2.1/../../../../pic32c/lib/v7e-m/fpv5/hard\libc.a(lib_a-findfp.o)
 .text.__sinit_lock_acquire
                0x00000000        0x4 d:/00_program_installation/microchip/xc32/v2.10/bin/bin/../../lib/gcc/pic32c/6.2.1/../../../../pic32c/lib/v7e-m/fpv5/hard\libc.a(lib_a-findfp.o)
 .text.__sinit_lock_release
                0x00000000        0x4 d:/00_program_installation/microchip/xc32/v2.10/bin/bin/../../lib/gcc/pic32c/6.2.1/../../../../pic32c/lib/v7e-m/fpv5/hard\libc.a(lib_a-findfp.o)
 .text.__fp_lock_all
                0x00000000       0x14 d:/00_program_installation/microchip/xc32/v2.10/bin/bin/../../lib/gcc/pic32c/6.2.1/../../../../pic32c/lib/v7e-m/fpv5/hard\libc.a(lib_a-findfp.o)
 .text.__fp_unlock_all
                0x00000000       0x14 d:/00_program_installation/microchip/xc32/v2.10/bin/bin/../../lib/gcc/pic32c/6.2.1/../../../../pic32c/lib/v7e-m/fpv5/hard\libc.a(lib_a-findfp.o)
 .text          0x00000000        0x0 d:/00_program_installation/microchip/xc32/v2.10/bin/bin/../../lib/gcc/pic32c/6.2.1/../../../../pic32c/lib/v7e-m/fpv5/hard\libc.a(lib_a-fini.o)
 .data          0x00000000        0x0 d:/00_program_installation/microchip/xc32/v2.10/bin/bin/../../lib/gcc/pic32c/6.2.1/../../../../pic32c/lib/v7e-m/fpv5/hard\libc.a(lib_a-fini.o)
 .bss           0x00000000        0x0 d:/00_program_installation/microchip/xc32/v2.10/bin/bin/../../lib/gcc/pic32c/6.2.1/../../../../pic32c/lib/v7e-m/fpv5/hard\libc.a(lib_a-fini.o)
 .text          0x00000000        0x0 d:/00_program_installation/microchip/xc32/v2.10/bin/bin/../../lib/gcc/pic32c/6.2.1/../../../../pic32c/lib/v7e-m/fpv5/hard\libc.a(lib_a-freer.o)
 .data          0x00000000        0x0 d:/00_program_installation/microchip/xc32/v2.10/bin/bin/../../lib/gcc/pic32c/6.2.1/../../../../pic32c/lib/v7e-m/fpv5/hard\libc.a(lib_a-freer.o)
 .bss           0x00000000        0x0 d:/00_program_installation/microchip/xc32/v2.10/bin/bin/../../lib/gcc/pic32c/6.2.1/../../../../pic32c/lib/v7e-m/fpv5/hard\libc.a(lib_a-freer.o)
 .text          0x00000000        0x0 d:/00_program_installation/microchip/xc32/v2.10/bin/bin/../../lib/gcc/pic32c/6.2.1/../../../../pic32c/lib/v7e-m/fpv5/hard\libc.a(lib_a-fwalk.o)
 .data          0x00000000        0x0 d:/00_program_installation/microchip/xc32/v2.10/bin/bin/../../lib/gcc/pic32c/6.2.1/../../../../pic32c/lib/v7e-m/fpv5/hard\libc.a(lib_a-fwalk.o)
 .bss           0x00000000        0x0 d:/00_program_installation/microchip/xc32/v2.10/bin/bin/../../lib/gcc/pic32c/6.2.1/../../../../pic32c/lib/v7e-m/fpv5/hard\libc.a(lib_a-fwalk.o)
 .text._fwalk   0x00000000       0x4c d:/00_program_installation/microchip/xc32/v2.10/bin/bin/../../lib/gcc/pic32c/6.2.1/../../../../pic32c/lib/v7e-m/fpv5/hard\libc.a(lib_a-fwalk.o)
 .data          0x00000000        0x0 d:/00_program_installation/microchip/xc32/v2.10/bin/bin/../../lib/gcc/pic32c/6.2.1/../../../../pic32c/lib/v7e-m/fpv5/hard\libc.a(lib_a-memchr.o)
 .bss           0x00000000        0x0 d:/00_program_installation/microchip/xc32/v2.10/bin/bin/../../lib/gcc/pic32c/6.2.1/../../../../pic32c/lib/v7e-m/fpv5/hard\libc.a(lib_a-memchr.o)
 .text          0x00000000        0x0 d:/00_program_installation/microchip/xc32/v2.10/bin/bin/../../lib/gcc/pic32c/6.2.1/../../../../pic32c/lib/v7e-m/fpv5/hard\libc.a(lib_a-reent.o)
 .data          0x00000000        0x0 d:/00_program_installation/microchip/xc32/v2.10/bin/bin/../../lib/gcc/pic32c/6.2.1/../../../../pic32c/lib/v7e-m/fpv5/hard\libc.a(lib_a-reent.o)
 .bss           0x00000000        0x0 d:/00_program_installation/microchip/xc32/v2.10/bin/bin/../../lib/gcc/pic32c/6.2.1/../../../../pic32c/lib/v7e-m/fpv5/hard\libc.a(lib_a-reent.o)
 .text.cleanup_glue
                0x00000000       0x1c d:/00_program_installation/microchip/xc32/v2.10/bin/bin/../../lib/gcc/pic32c/6.2.1/../../../../pic32c/lib/v7e-m/fpv5/hard\libc.a(lib_a-reent.o)
 .text._reclaim_reent
                0x00000000       0x88 d:/00_program_installation/microchip/xc32/v2.10/bin/bin/../../lib/gcc/pic32c/6.2.1/../../../../pic32c/lib/v7e-m/fpv5/hard\libc.a(lib_a-reent.o)
 .text          0x00000000        0x0 d:/00_program_installation/microchip/xc32/v2.10/bin/bin/../../lib/gcc/pic32c/6.2.1/../../../../pic32c/lib/v7e-m/fpv5/hard\libc.a(lib_a-stdio.o)
 .data          0x00000000        0x0 d:/00_program_installation/microchip/xc32/v2.10/bin/bin/../../lib/gcc/pic32c/6.2.1/../../../../pic32c/lib/v7e-m/fpv5/hard\libc.a(lib_a-stdio.o)
 .bss           0x00000000        0x0 d:/00_program_installation/microchip/xc32/v2.10/bin/bin/../../lib/gcc/pic32c/6.2.1/../../../../pic32c/lib/v7e-m/fpv5/hard\libc.a(lib_a-stdio.o)
 .text.__seofread
                0x00000000        0x4 d:/00_program_installation/microchip/xc32/v2.10/bin/bin/../../lib/gcc/pic32c/6.2.1/../../../../pic32c/lib/v7e-m/fpv5/hard\libc.a(lib_a-stdio.o)
 .text          0x00000000        0x0 d:/00_program_installation/microchip/xc32/v2.10/bin/bin/../../lib/gcc/pic32c/6.2.1/../../../../pic32c/lib/v7e-m/fpv5/hard\libc.a(lib_a-vfiprintf.o)
 .data          0x00000000        0x0 d:/00_program_installation/microchip/xc32/v2.10/bin/bin/../../lib/gcc/pic32c/6.2.1/../../../../pic32c/lib/v7e-m/fpv5/hard\libc.a(lib_a-vfiprintf.o)
 .bss           0x00000000        0x0 d:/00_program_installation/microchip/xc32/v2.10/bin/bin/../../lib/gcc/pic32c/6.2.1/../../../../pic32c/lib/v7e-m/fpv5/hard\libc.a(lib_a-vfiprintf.o)
 .text._vfiprintf_r
                0x00000000      0xd00 d:/00_program_installation/microchip/xc32/v2.10/bin/bin/../../lib/gcc/pic32c/6.2.1/../../../../pic32c/lib/v7e-m/fpv5/hard\libc.a(lib_a-vfiprintf.o)
 .text.vfiprintf
                0x00000000       0x18 d:/00_program_installation/microchip/xc32/v2.10/bin/bin/../../lib/gcc/pic32c/6.2.1/../../../../pic32c/lib/v7e-m/fpv5/hard\libc.a(lib_a-vfiprintf.o)
 .text.__sbprintf
                0x00000000       0x6c d:/00_program_installation/microchip/xc32/v2.10/bin/bin/../../lib/gcc/pic32c/6.2.1/../../../../pic32c/lib/v7e-m/fpv5/hard\libc.a(lib_a-vfiprintf.o)
 .rodata        0x00000000       0x30 d:/00_program_installation/microchip/xc32/v2.10/bin/bin/../../lib/gcc/pic32c/6.2.1/../../../../pic32c/lib/v7e-m/fpv5/hard\libc.a(lib_a-vfiprintf.o)
 .rodata.blanks.8345
                0x00000000       0x10 d:/00_program_installation/microchip/xc32/v2.10/bin/bin/../../lib/gcc/pic32c/6.2.1/../../../../pic32c/lib/v7e-m/fpv5/hard\libc.a(lib_a-vfiprintf.o)
 .rodata.zeroes.8346
                0x00000000       0x10 d:/00_program_installation/microchip/xc32/v2.10/bin/bin/../../lib/gcc/pic32c/6.2.1/../../../../pic32c/lib/v7e-m/fpv5/hard\libc.a(lib_a-vfiprintf.o)
 .text          0x00000000        0x0 d:/00_program_installation/microchip/xc32/v2.10/bin/bin/../../lib/gcc/pic32c/6.2.1/../../../../pic32c/lib/v7e-m/fpv5/hard\libc.a(lib_a-writer.o)
 .data          0x00000000        0x0 d:/00_program_installation/microchip/xc32/v2.10/bin/bin/../../lib/gcc/pic32c/6.2.1/../../../../pic32c/lib/v7e-m/fpv5/hard\libc.a(lib_a-writer.o)
 .bss           0x00000000        0x0 d:/00_program_installation/microchip/xc32/v2.10/bin/bin/../../lib/gcc/pic32c/6.2.1/../../../../pic32c/lib/v7e-m/fpv5/hard\libc.a(lib_a-writer.o)
 .text          0x00000000        0x0 d:/00_program_installation/microchip/xc32/v2.10/bin/bin/../../lib/gcc/pic32c/6.2.1/../../../../pic32c/lib/v7e-m/fpv5/hard\libc.a(lib_a-wsetup.o)
 .data          0x00000000        0x0 d:/00_program_installation/microchip/xc32/v2.10/bin/bin/../../lib/gcc/pic32c/6.2.1/../../../../pic32c/lib/v7e-m/fpv5/hard\libc.a(lib_a-wsetup.o)
 .bss           0x00000000        0x0 d:/00_program_installation/microchip/xc32/v2.10/bin/bin/../../lib/gcc/pic32c/6.2.1/../../../../pic32c/lib/v7e-m/fpv5/hard\libc.a(lib_a-wsetup.o)
 .text          0x00000000        0x0 d:/00_program_installation/microchip/xc32/v2.10/bin/bin/../../lib/gcc/pic32c/6.2.1/../../../../pic32c/lib/v7e-m/fpv5/hard\libc.a(lib_a-__atexit.o)
 .data          0x00000000        0x0 d:/00_program_installation/microchip/xc32/v2.10/bin/bin/../../lib/gcc/pic32c/6.2.1/../../../../pic32c/lib/v7e-m/fpv5/hard\libc.a(lib_a-__atexit.o)
 .bss           0x00000000        0x0 d:/00_program_installation/microchip/xc32/v2.10/bin/bin/../../lib/gcc/pic32c/6.2.1/../../../../pic32c/lib/v7e-m/fpv5/hard\libc.a(lib_a-__atexit.o)
 .text          0x00000000        0x0 d:/00_program_installation/microchip/xc32/v2.10/bin/bin/../../lib/gcc/pic32c/6.2.1/../../../../pic32c/lib/v7e-m/fpv5/hard\libc.a(lib_a-closer.o)
 .data          0x00000000        0x0 d:/00_program_installation/microchip/xc32/v2.10/bin/bin/../../lib/gcc/pic32c/6.2.1/../../../../pic32c/lib/v7e-m/fpv5/hard\libc.a(lib_a-closer.o)
 .bss           0x00000000        0x0 d:/00_program_installation/microchip/xc32/v2.10/bin/bin/../../lib/gcc/pic32c/6.2.1/../../../../pic32c/lib/v7e-m/fpv5/hard\libc.a(lib_a-closer.o)
 .text          0x00000000        0x0 d:/00_program_installation/microchip/xc32/v2.10/bin/bin/../../lib/gcc/pic32c/6.2.1/../../../../pic32c/lib/v7e-m/fpv5/hard\libc.a(lib_a-fclose.o)
 .data          0x00000000        0x0 d:/00_program_installation/microchip/xc32/v2.10/bin/bin/../../lib/gcc/pic32c/6.2.1/../../../../pic32c/lib/v7e-m/fpv5/hard\libc.a(lib_a-fclose.o)
 .bss           0x00000000        0x0 d:/00_program_installation/microchip/xc32/v2.10/bin/bin/../../lib/gcc/pic32c/6.2.1/../../../../pic32c/lib/v7e-m/fpv5/hard\libc.a(lib_a-fclose.o)
 .text.fclose   0x00000000       0x10 d:/00_program_installation/microchip/xc32/v2.10/bin/bin/../../lib/gcc/pic32c/6.2.1/../../../../pic32c/lib/v7e-m/fpv5/hard\libc.a(lib_a-fclose.o)
 .text          0x00000000        0x0 d:/00_program_installation/microchip/xc32/v2.10/bin/bin/../../lib/gcc/pic32c/6.2.1/../../../../pic32c/lib/v7e-m/fpv5/hard\libc.a(lib_a-fputwc.o)
 .data          0x00000000        0x0 d:/00_program_installation/microchip/xc32/v2.10/bin/bin/../../lib/gcc/pic32c/6.2.1/../../../../pic32c/lib/v7e-m/fpv5/hard\libc.a(lib_a-fputwc.o)
 .bss           0x00000000        0x0 d:/00_program_installation/microchip/xc32/v2.10/bin/bin/../../lib/gcc/pic32c/6.2.1/../../../../pic32c/lib/v7e-m/fpv5/hard\libc.a(lib_a-fputwc.o)
 .text.fputwc   0x00000000       0x40 d:/00_program_installation/microchip/xc32/v2.10/bin/bin/../../lib/gcc/pic32c/6.2.1/../../../../pic32c/lib/v7e-m/fpv5/hard\libc.a(lib_a-fputwc.o)
 .text          0x00000000        0x0 d:/00_program_installation/microchip/xc32/v2.10/bin/bin/../../lib/gcc/pic32c/6.2.1/../../../../pic32c/lib/v7e-m/fpv5/hard\libc.a(lib_a-fvwrite.o)
 .data          0x00000000        0x0 d:/00_program_installation/microchip/xc32/v2.10/bin/bin/../../lib/gcc/pic32c/6.2.1/../../../../pic32c/lib/v7e-m/fpv5/hard\libc.a(lib_a-fvwrite.o)
 .bss           0x00000000        0x0 d:/00_program_installation/microchip/xc32/v2.10/bin/bin/../../lib/gcc/pic32c/6.2.1/../../../../pic32c/lib/v7e-m/fpv5/hard\libc.a(lib_a-fvwrite.o)
 .text          0x00000000        0x0 d:/00_program_installation/microchip/xc32/v2.10/bin/bin/../../lib/gcc/pic32c/6.2.1/../../../../pic32c/lib/v7e-m/fpv5/hard\libc.a(lib_a-localeconv.o)
 .data          0x00000000        0x0 d:/00_program_installation/microchip/xc32/v2.10/bin/bin/../../lib/gcc/pic32c/6.2.1/../../../../pic32c/lib/v7e-m/fpv5/hard\libc.a(lib_a-localeconv.o)
 .bss           0x00000000        0x0 d:/00_program_installation/microchip/xc32/v2.10/bin/bin/../../lib/gcc/pic32c/6.2.1/../../../../pic32c/lib/v7e-m/fpv5/hard\libc.a(lib_a-localeconv.o)
 .text.__localeconv_l
                0x00000000        0x4 d:/00_program_installation/microchip/xc32/v2.10/bin/bin/../../lib/gcc/pic32c/6.2.1/../../../../pic32c/lib/v7e-m/fpv5/hard\libc.a(lib_a-localeconv.o)
 .text._localeconv_r
                0x00000000       0x1c d:/00_program_installation/microchip/xc32/v2.10/bin/bin/../../lib/gcc/pic32c/6.2.1/../../../../pic32c/lib/v7e-m/fpv5/hard\libc.a(lib_a-localeconv.o)
 .text.localeconv
                0x00000000       0x1c d:/00_program_installation/microchip/xc32/v2.10/bin/bin/../../lib/gcc/pic32c/6.2.1/../../../../pic32c/lib/v7e-m/fpv5/hard\libc.a(lib_a-localeconv.o)
 .debug_info    0x00000000     0x169d d:/00_program_installation/microchip/xc32/v2.10/bin/bin/../../lib/gcc/pic32c/6.2.1/../../../../pic32c/lib/v7e-m/fpv5/hard\libc.a(lib_a-localeconv.o)
 .debug_abbrev  0x00000000      0x21b d:/00_program_installation/microchip/xc32/v2.10/bin/bin/../../lib/gcc/pic32c/6.2.1/../../../../pic32c/lib/v7e-m/fpv5/hard\libc.a(lib_a-localeconv.o)
 .debug_loc     0x00000000       0x63 d:/00_program_installation/microchip/xc32/v2.10/bin/bin/../../lib/gcc/pic32c/6.2.1/../../../../pic32c/lib/v7e-m/fpv5/hard\libc.a(lib_a-localeconv.o)
 .debug_aranges
                0x00000000       0x30 d:/00_program_installation/microchip/xc32/v2.10/bin/bin/../../lib/gcc/pic32c/6.2.1/../../../../pic32c/lib/v7e-m/fpv5/hard\libc.a(lib_a-localeconv.o)
 .debug_ranges  0x00000000       0x20 d:/00_program_installation/microchip/xc32/v2.10/bin/bin/../../lib/gcc/pic32c/6.2.1/../../../../pic32c/lib/v7e-m/fpv5/hard\libc.a(lib_a-localeconv.o)
 .debug_line    0x00000000      0x280 d:/00_program_installation/microchip/xc32/v2.10/bin/bin/../../lib/gcc/pic32c/6.2.1/../../../../pic32c/lib/v7e-m/fpv5/hard\libc.a(lib_a-localeconv.o)
 .debug_str     0x00000000      0x119 d:/00_program_installation/microchip/xc32/v2.10/bin/bin/../../lib/gcc/pic32c/6.2.1/../../../../pic32c/lib/v7e-m/fpv5/hard\libc.a(lib_a-localeconv.o)
 .comment       0x00000000       0x3d d:/00_program_installation/microchip/xc32/v2.10/bin/bin/../../lib/gcc/pic32c/6.2.1/../../../../pic32c/lib/v7e-m/fpv5/hard\libc.a(lib_a-localeconv.o)
 .debug_frame   0x00000000       0x40 d:/00_program_installation/microchip/xc32/v2.10/bin/bin/../../lib/gcc/pic32c/6.2.1/../../../../pic32c/lib/v7e-m/fpv5/hard\libc.a(lib_a-localeconv.o)
 .ARM.attributes
                0x00000000       0x32 d:/00_program_installation/microchip/xc32/v2.10/bin/bin/../../lib/gcc/pic32c/6.2.1/../../../../pic32c/lib/v7e-m/fpv5/hard\libc.a(lib_a-localeconv.o)
 .text          0x00000000        0x0 d:/00_program_installation/microchip/xc32/v2.10/bin/bin/../../lib/gcc/pic32c/6.2.1/../../../../pic32c/lib/v7e-m/fpv5/hard\libc.a(lib_a-lseekr.o)
 .data          0x00000000        0x0 d:/00_program_installation/microchip/xc32/v2.10/bin/bin/../../lib/gcc/pic32c/6.2.1/../../../../pic32c/lib/v7e-m/fpv5/hard\libc.a(lib_a-lseekr.o)
 .bss           0x00000000        0x0 d:/00_program_installation/microchip/xc32/v2.10/bin/bin/../../lib/gcc/pic32c/6.2.1/../../../../pic32c/lib/v7e-m/fpv5/hard\libc.a(lib_a-lseekr.o)
 .text          0x00000000        0x0 d:/00_program_installation/microchip/xc32/v2.10/bin/bin/../../lib/gcc/pic32c/6.2.1/../../../../pic32c/lib/v7e-m/fpv5/hard\libc.a(lib_a-makebuf.o)
 .data          0x00000000        0x0 d:/00_program_installation/microchip/xc32/v2.10/bin/bin/../../lib/gcc/pic32c/6.2.1/../../../../pic32c/lib/v7e-m/fpv5/hard\libc.a(lib_a-makebuf.o)
 .bss           0x00000000        0x0 d:/00_program_installation/microchip/xc32/v2.10/bin/bin/../../lib/gcc/pic32c/6.2.1/../../../../pic32c/lib/v7e-m/fpv5/hard\libc.a(lib_a-makebuf.o)
 .text          0x00000000        0x0 d:/00_program_installation/microchip/xc32/v2.10/bin/bin/../../lib/gcc/pic32c/6.2.1/../../../../pic32c/lib/v7e-m/fpv5/hard\libc.a(lib_a-memmove.o)
 .data          0x00000000        0x0 d:/00_program_installation/microchip/xc32/v2.10/bin/bin/../../lib/gcc/pic32c/6.2.1/../../../../pic32c/lib/v7e-m/fpv5/hard\libc.a(lib_a-memmove.o)
 .bss           0x00000000        0x0 d:/00_program_installation/microchip/xc32/v2.10/bin/bin/../../lib/gcc/pic32c/6.2.1/../../../../pic32c/lib/v7e-m/fpv5/hard\libc.a(lib_a-memmove.o)
 .text          0x00000000        0x0 d:/00_program_installation/microchip/xc32/v2.10/bin/bin/../../lib/gcc/pic32c/6.2.1/../../../../pic32c/lib/v7e-m/fpv5/hard\libc.a(lib_a-readr.o)
 .data          0x00000000        0x0 d:/00_program_installation/microchip/xc32/v2.10/bin/bin/../../lib/gcc/pic32c/6.2.1/../../../../pic32c/lib/v7e-m/fpv5/hard\libc.a(lib_a-readr.o)
 .bss           0x00000000        0x0 d:/00_program_installation/microchip/xc32/v2.10/bin/bin/../../lib/gcc/pic32c/6.2.1/../../../../pic32c/lib/v7e-m/fpv5/hard\libc.a(lib_a-readr.o)
 .text          0x00000000        0x0 d:/00_program_installation/microchip/xc32/v2.10/bin/bin/../../lib/gcc/pic32c/6.2.1/../../../../pic32c/lib/v7e-m/fpv5/hard\libc.a(lib_a-reallocr.o)
 .data          0x00000000        0x0 d:/00_program_installation/microchip/xc32/v2.10/bin/bin/../../lib/gcc/pic32c/6.2.1/../../../../pic32c/lib/v7e-m/fpv5/hard\libc.a(lib_a-reallocr.o)
 .bss           0x00000000        0x0 d:/00_program_installation/microchip/xc32/v2.10/bin/bin/../../lib/gcc/pic32c/6.2.1/../../../../pic32c/lib/v7e-m/fpv5/hard\libc.a(lib_a-reallocr.o)
 .text          0x00000000        0x0 d:/00_program_installation/microchip/xc32/v2.10/bin/bin/../../lib/gcc/pic32c/6.2.1/../../../../pic32c/lib/v7e-m/fpv5/hard\libc.a(lib_a-wbuf.o)
 .data          0x00000000        0x0 d:/00_program_installation/microchip/xc32/v2.10/bin/bin/../../lib/gcc/pic32c/6.2.1/../../../../pic32c/lib/v7e-m/fpv5/hard\libc.a(lib_a-wbuf.o)
 .bss           0x00000000        0x0 d:/00_program_installation/microchip/xc32/v2.10/bin/bin/../../lib/gcc/pic32c/6.2.1/../../../../pic32c/lib/v7e-m/fpv5/hard\libc.a(lib_a-wbuf.o)
 .text.__swbuf  0x00000000       0x10 d:/00_program_installation/microchip/xc32/v2.10/bin/bin/../../lib/gcc/pic32c/6.2.1/../../../../pic32c/lib/v7e-m/fpv5/hard\libc.a(lib_a-wbuf.o)
 .text          0x00000000        0x0 d:/00_program_installation/microchip/xc32/v2.10/bin/bin/../../lib/gcc/pic32c/6.2.1/../../../../pic32c/lib/v7e-m/fpv5/hard\libc.a(lib_a-wcrtomb.o)
 .data          0x00000000        0x0 d:/00_program_installation/microchip/xc32/v2.10/bin/bin/../../lib/gcc/pic32c/6.2.1/../../../../pic32c/lib/v7e-m/fpv5/hard\libc.a(lib_a-wcrtomb.o)
 .bss           0x00000000        0x0 d:/00_program_installation/microchip/xc32/v2.10/bin/bin/../../lib/gcc/pic32c/6.2.1/../../../../pic32c/lib/v7e-m/fpv5/hard\libc.a(lib_a-wcrtomb.o)
 .text.wcrtomb  0x00000000       0x4c d:/00_program_installation/microchip/xc32/v2.10/bin/bin/../../lib/gcc/pic32c/6.2.1/../../../../pic32c/lib/v7e-m/fpv5/hard\libc.a(lib_a-wcrtomb.o)
 .text          0x00000000        0x0 d:/00_program_installation/microchip/xc32/v2.10/bin/bin/../../lib/gcc/pic32c/6.2.1/../../../../pic32c/lib/v7e-m/fpv5/hard\libc.a(lib_a-fstatr.o)
 .data          0x00000000        0x0 d:/00_program_installation/microchip/xc32/v2.10/bin/bin/../../lib/gcc/pic32c/6.2.1/../../../../pic32c/lib/v7e-m/fpv5/hard\libc.a(lib_a-fstatr.o)
 .bss           0x00000000        0x0 d:/00_program_installation/microchip/xc32/v2.10/bin/bin/../../lib/gcc/pic32c/6.2.1/../../../../pic32c/lib/v7e-m/fpv5/hard\libc.a(lib_a-fstatr.o)
 .text          0x00000000        0x0 d:/00_program_installation/microchip/xc32/v2.10/bin/bin/../../lib/gcc/pic32c/6.2.1/../../../../pic32c/lib/v7e-m/fpv5/hard\libc.a(lib_a-isattyr.o)
 .data          0x00000000        0x0 d:/00_program_installation/microchip/xc32/v2.10/bin/bin/../../lib/gcc/pic32c/6.2.1/../../../../pic32c/lib/v7e-m/fpv5/hard\libc.a(lib_a-isattyr.o)
 .bss           0x00000000        0x0 d:/00_program_installation/microchip/xc32/v2.10/bin/bin/../../lib/gcc/pic32c/6.2.1/../../../../pic32c/lib/v7e-m/fpv5/hard\libc.a(lib_a-isattyr.o)
 .text          0x00000000        0x0 d:/00_program_installation/microchip/xc32/v2.10/bin/bin/../../lib/gcc/pic32c/6.2.1/../../../../pic32c/lib/v7e-m/fpv5/hard\libpic32c.a(close.o)
 .data          0x00000000        0x0 d:/00_program_installation/microchip/xc32/v2.10/bin/bin/../../lib/gcc/pic32c/6.2.1/../../../../pic32c/lib/v7e-m/fpv5/hard\libpic32c.a(close.o)
 .bss           0x00000000        0x0 d:/00_program_installation/microchip/xc32/v2.10/bin/bin/../../lib/gcc/pic32c/6.2.1/../../../../pic32c/lib/v7e-m/fpv5/hard\libpic32c.a(close.o)
 .text.close    0x00000000        0x8 d:/00_program_installation/microchip/xc32/v2.10/bin/bin/../../lib/gcc/pic32c/6.2.1/../../../../pic32c/lib/v7e-m/fpv5/hard\libpic32c.a(close.o)
 .gnu.warning.closestub
                0x00000000        0x0 d:/00_program_installation/microchip/xc32/v2.10/bin/bin/../../lib/gcc/pic32c/6.2.1/../../../../pic32c/lib/v7e-m/fpv5/hard\libpic32c.a(close.o)
 .text          0x00000000        0x0 d:/00_program_installation/microchip/xc32/v2.10/bin/bin/../../lib/gcc/pic32c/6.2.1/../../../../pic32c/lib/v7e-m/fpv5/hard\libpic32c.a(fstat.o)
 .data          0x00000000        0x0 d:/00_program_installation/microchip/xc32/v2.10/bin/bin/../../lib/gcc/pic32c/6.2.1/../../../../pic32c/lib/v7e-m/fpv5/hard\libpic32c.a(fstat.o)
 .bss           0x00000000        0x0 d:/00_program_installation/microchip/xc32/v2.10/bin/bin/../../lib/gcc/pic32c/6.2.1/../../../../pic32c/lib/v7e-m/fpv5/hard\libpic32c.a(fstat.o)
 .text          0x00000000        0x0 d:/00_program_installation/microchip/xc32/v2.10/bin/bin/../../lib/gcc/pic32c/6.2.1/../../../../pic32c/lib/v7e-m/fpv5/hard\libpic32c.a(isatty.o)
 .data          0x00000000        0x0 d:/00_program_installation/microchip/xc32/v2.10/bin/bin/../../lib/gcc/pic32c/6.2.1/../../../../pic32c/lib/v7e-m/fpv5/hard\libpic32c.a(isatty.o)
 .bss           0x00000000        0x0 d:/00_program_installation/microchip/xc32/v2.10/bin/bin/../../lib/gcc/pic32c/6.2.1/../../../../pic32c/lib/v7e-m/fpv5/hard\libpic32c.a(isatty.o)
 .text          0x00000000        0x0 d:/00_program_installation/microchip/xc32/v2.10/bin/bin/../../lib/gcc/pic32c/6.2.1/../../../../pic32c/lib/v7e-m/fpv5/hard\libpic32c.a(lseek.o)
 .data          0x00000000        0x0 d:/00_program_installation/microchip/xc32/v2.10/bin/bin/../../lib/gcc/pic32c/6.2.1/../../../../pic32c/lib/v7e-m/fpv5/hard\libpic32c.a(lseek.o)
 .bss           0x00000000        0x0 d:/00_program_installation/microchip/xc32/v2.10/bin/bin/../../lib/gcc/pic32c/6.2.1/../../../../pic32c/lib/v7e-m/fpv5/hard\libpic32c.a(lseek.o)
 .text          0x00000000        0x0 d:/00_program_installation/microchip/xc32/v2.10/bin/bin/../../lib/gcc/pic32c/6.2.1/../../../../pic32c/lib/v7e-m/fpv5/hard\libpic32c.a(read.o)
 .data          0x00000000        0x0 d:/00_program_installation/microchip/xc32/v2.10/bin/bin/../../lib/gcc/pic32c/6.2.1/../../../../pic32c/lib/v7e-m/fpv5/hard\libpic32c.a(read.o)
 .bss           0x00000000        0x0 d:/00_program_installation/microchip/xc32/v2.10/bin/bin/../../lib/gcc/pic32c/6.2.1/../../../../pic32c/lib/v7e-m/fpv5/hard\libpic32c.a(read.o)
 .text          0x00000000        0x0 d:/00_program_installation/microchip/xc32/v2.10/bin/bin/../../lib/gcc/pic32c/6.2.1/../../../../pic32c/lib/v7e-m/fpv5/hard\libpic32c.a(sbrk.o)
 .data          0x00000000        0x0 d:/00_program_installation/microchip/xc32/v2.10/bin/bin/../../lib/gcc/pic32c/6.2.1/../../../../pic32c/lib/v7e-m/fpv5/hard\libpic32c.a(sbrk.o)
 .text          0x00000000        0x0 d:/00_program_installation/microchip/xc32/v2.10/bin/bin/../../lib/gcc/pic32c/6.2.1/../../../../pic32c/lib/v7e-m/fpv5/hard\libpic32c.a(write.o)
 .data          0x00000000        0x0 d:/00_program_installation/microchip/xc32/v2.10/bin/bin/../../lib/gcc/pic32c/6.2.1/../../../../pic32c/lib/v7e-m/fpv5/hard\libpic32c.a(write.o)
 .bss           0x00000000        0x0 d:/00_program_installation/microchip/xc32/v2.10/bin/bin/../../lib/gcc/pic32c/6.2.1/../../../../pic32c/lib/v7e-m/fpv5/hard\libpic32c.a(write.o)
 .text          0x00000000        0x0 d:/00_program_installation/microchip/xc32/v2.10/bin/bin/../../lib/gcc/pic32c/6.2.1/../../../../pic32c/lib/v7e-m/fpv5/hard\libpic32c.a(_mon_getc.o)
 .data          0x00000000        0x0 d:/00_program_installation/microchip/xc32/v2.10/bin/bin/../../lib/gcc/pic32c/6.2.1/../../../../pic32c/lib/v7e-m/fpv5/hard\libpic32c.a(_mon_getc.o)
 .bss           0x00000000        0x0 d:/00_program_installation/microchip/xc32/v2.10/bin/bin/../../lib/gcc/pic32c/6.2.1/../../../../pic32c/lib/v7e-m/fpv5/hard\libpic32c.a(_mon_getc.o)
 .gnu.warning._mon_getc
                0x00000000        0x0 d:/00_program_installation/microchip/xc32/v2.10/bin/bin/../../lib/gcc/pic32c/6.2.1/../../../../pic32c/lib/v7e-m/fpv5/hard\libpic32c.a(_mon_getc.o)
 .text          0x00000000        0x0 d:/00_program_installation/microchip/xc32/v2.10/bin/bin/../../lib/gcc/pic32c/6.2.1/../../../../pic32c/lib/v7e-m/fpv5/hard\libpic32c.a(_mon_putc.o)
 .data          0x00000000        0x0 d:/00_program_installation/microchip/xc32/v2.10/bin/bin/../../lib/gcc/pic32c/6.2.1/../../../../pic32c/lib/v7e-m/fpv5/hard\libpic32c.a(_mon_putc.o)
 .bss           0x00000000        0x0 d:/00_program_installation/microchip/xc32/v2.10/bin/bin/../../lib/gcc/pic32c/6.2.1/../../../../pic32c/lib/v7e-m/fpv5/hard\libpic32c.a(_mon_putc.o)
 .gnu.warning._mon_putc
                0x00000000        0x0 d:/00_program_installation/microchip/xc32/v2.10/bin/bin/../../lib/gcc/pic32c/6.2.1/../../../../pic32c/lib/v7e-m/fpv5/hard\libpic32c.a(_mon_putc.o)
 .text          0x00000000        0x0 d:/00_program_installation/microchip/xc32/v2.10/bin/bin/../../lib/gcc/pic32c/6.2.1/v7e-m/fpv5/hard/crtend.o
 .data          0x00000000        0x0 d:/00_program_installation/microchip/xc32/v2.10/bin/bin/../../lib/gcc/pic32c/6.2.1/v7e-m/fpv5/hard/crtend.o
 .bss           0x00000000        0x0 d:/00_program_installation/microchip/xc32/v2.10/bin/bin/../../lib/gcc/pic32c/6.2.1/v7e-m/fpv5/hard/crtend.o
 .eh_frame      0x00000000        0x4 d:/00_program_installation/microchip/xc32/v2.10/bin/bin/../../lib/gcc/pic32c/6.2.1/v7e-m/fpv5/hard/crtend.o
 .jcr           0x00000000        0x4 d:/00_program_installation/microchip/xc32/v2.10/bin/bin/../../lib/gcc/pic32c/6.2.1/v7e-m/fpv5/hard/crtend.o
 .comment       0x00000000       0x3d d:/00_program_installation/microchip/xc32/v2.10/bin/bin/../../lib/gcc/pic32c/6.2.1/v7e-m/fpv5/hard/crtend.o
 .ARM.attributes
                0x00000000       0x32 d:/00_program_installation/microchip/xc32/v2.10/bin/bin/../../lib/gcc/pic32c/6.2.1/v7e-m/fpv5/hard/crtend.o
 .text          0x00000000        0x0 d:/00_program_installation/microchip/xc32/v2.10/bin/bin/../../lib/gcc/pic32c/6.2.1/v7e-m/fpv5/hard/crtn.o
 .data          0x00000000        0x0 d:/00_program_installation/microchip/xc32/v2.10/bin/bin/../../lib/gcc/pic32c/6.2.1/v7e-m/fpv5/hard/crtn.o
 .bss           0x00000000        0x0 d:/00_program_installation/microchip/xc32/v2.10/bin/bin/../../lib/gcc/pic32c/6.2.1/v7e-m/fpv5/hard/crtn.o

Memory Configuration

Name             Origin             Length             Attributes
rom              0x00400000         0x00200000         xr
ram              0x20400000         0x00060000         xrw
itcm             0x00000000         0x00000000         xrw
dtcm             0x20000000         0x00000000         xrw
*default*        0x00000000         0xffffffff
tcm              0x00000000         0xffffffff

Linker script and memory map

LOAD d:/00_program_installation/microchip/xc32/v2.10/bin/bin/../../lib/gcc/pic32c/6.2.1/v7e-m/fpv5/hard/crti.o
LOAD d:/00_program_installation/microchip/xc32/v2.10/bin/bin/../../lib/gcc/pic32c/6.2.1/v7e-m/fpv5/hard/crtbegin.o
LOAD d:/00_program_installation/microchip/xc32/v2.10/bin/bin/../../lib/gcc/pic32c/6.2.1/../../../../pic32c/lib/v7e-m/fpv5/hard/crt0.o
LOAD build/default/production/_ext/1360937237/main.o
LOAD build/default/production/_ext/1360937237/app.o
LOAD build/default/production/_ext/1171490990/initialization.o
LOAD build/default/production/_ext/1171490990/tasks.o
LOAD build/default/production/_ext/1171490990/interrupts.o
LOAD build/default/production/_ext/1171490990/exceptions.o
LOAD build/default/production/_ext/60165520/plib_clk.o
LOAD build/default/production/_ext/60177924/plib_pio.o
LOAD build/default/production/_ext/1865468468/plib_nvic.o
LOAD build/default/production/_ext/60175264/plib_mpu.o
LOAD build/default/production/_ext/1171490990/startup.o
LOAD build/default/production/_ext/1171490990/libc_syscalls.o
LOAD build/default/production/_ext/1881668453/sys_int.o
LOAD build/default/production/_ext/444070925/drv_ethphy.o
LOAD build/default/production/_ext/444070925/drv_extphy_smsc8740.o
LOAD build/default/production/_ext/438849557/drv_miim.o
LOAD build/default/production/_ext/1546807373/drv_gmac.o
LOAD build/default/production/_ext/1546807373/drv_gmac_lib.o
LOAD build/default/production/_ext/718466696/net_pres.o
LOAD build/default/production/_ext/678723491/net_pres_enc_glue.o
LOAD build/default/production/_ext/678723491/net_pres_cert_store.o
LOAD build/default/production/_ext/101884895/sys_time.o
LOAD build/default/production/_ext/829342655/plib_tc0.o
LOAD build/default/production/_ext/1033058136/arp.o
LOAD build/default/production/_ext/1033058136/berkeley_api.o
LOAD build/default/production/_ext/1033058136/dhcp.o
LOAD build/default/production/_ext/1033058136/dns.o
LOAD build/default/production/_ext/1033058136/ipv4.o
LOAD build/default/production/_ext/1033058136/tcpip_heap_alloc.o
LOAD build/default/production/_ext/1033058136/tcpip_heap_internal.o
LOAD build/default/production/_ext/1033058136/helpers.o
LOAD build/default/production/_ext/1033058136/hash_fnv.o
LOAD build/default/production/_ext/1033058136/oahash.o
LOAD build/default/production/_ext/1033058136/tcpip_helpers.o
LOAD build/default/production/_ext/1033058136/tcpip_manager.o
LOAD build/default/production/_ext/1033058136/tcpip_notify.o
LOAD build/default/production/_ext/1033058136/tcpip_packet.o
LOAD build/default/production/_ext/753841488/sys_time_h2_adapter.o
LOAD build/default/production/_ext/1033058136/tcp.o
LOAD build/default/production/_ext/1033058136/udp.o
                0x00000001                __MPLAB_BUILD = 0x1
                0x0000afa0                _min_heap_size = 0xafa0
START GROUP
LOAD d:/00_program_installation/microchip/xc32/v2.10/bin/bin/../../lib/gcc/pic32c/6.2.1/../../../../pic32c/lib/v7e-m/fpv5/hard\libpic32c.a
LOAD d:/00_program_installation/microchip/xc32/v2.10/bin/bin/../../lib/gcc/pic32c/6.2.1/v7e-m/fpv5/hard\libgcc.a
LOAD d:/00_program_installation/microchip/xc32/v2.10/bin/bin/../../lib/gcc/pic32c/6.2.1/../../../../pic32c/lib/v7e-m/fpv5/hard\libc.a
LOAD d:/00_program_installation/microchip/xc32/v2.10/bin/bin/../../lib/gcc/pic32c/6.2.1/../../../../pic32c/lib/v7e-m/fpv5/hard\libm.a
END GROUP
LOAD d:/00_program_installation/microchip/xc32/v2.10/bin/bin/../../lib/gcc/pic32c/6.2.1/v7e-m/fpv5/hard/crtend.o
LOAD d:/00_program_installation/microchip/xc32/v2.10/bin/bin/../../lib/gcc/pic32c/6.2.1/v7e-m/fpv5/hard/crtn.o

.vectors        0x00400000      0x168
                0x00400000                . = ALIGN (0x4)
                0x00400000                _sfixed = .
 *(.vectors .vectors.*)
 .vectors       0x00400000      0x168 build/default/production/_ext/1171490990/interrupts.o
                0x00400000                exception_table

.text           0x00400168       0x24
                0x00400168                . = ALIGN (0x4)
 *(.glue_7t)
 .glue_7t       0x00400168        0x0 linker stubs
 *(.glue_7)
 .glue_7        0x00400168        0x0 linker stubs
 *(.gnu.linkonce.r.*)
 *(.ARM.extab* .gnu.linkonce.armextab.*)
                0x00400168                . = ALIGN (0x4)
 *(.init)
 .init          0x00400168        0x4 d:/00_program_installation/microchip/xc32/v2.10/bin/bin/../../lib/gcc/pic32c/6.2.1/v7e-m/fpv5/hard/crti.o
                0x00400168                _init
 .init          0x0040016c        0x8 d:/00_program_installation/microchip/xc32/v2.10/bin/bin/../../lib/gcc/pic32c/6.2.1/v7e-m/fpv5/hard/crtn.o
                0x00400174                . = ALIGN (0x4)
                0x00400174                __preinit_array_start = .
 *(.preinit_array)
                0x00400174                __preinit_array_end = .
                0x00400174                . = ALIGN (0x4)
                0x00400174                __init_array_start = .
 *(SORT(.init_array.*))
 .init_array.00000
                0x00400174        0x4 d:/00_program_installation/microchip/xc32/v2.10/bin/bin/../../lib/gcc/pic32c/6.2.1/../../../../pic32c/lib/v7e-m/fpv5/hard\libc.a(lib_a-__call_atexit.o)
 *(.init_array)
 .init_array    0x00400178        0x4 d:/00_program_installation/microchip/xc32/v2.10/bin/bin/../../lib/gcc/pic32c/6.2.1/v7e-m/fpv5/hard/crtbegin.o
                0x0040017c                __init_array_end = .
                0x0040017c                . = ALIGN (0x4)
 *crtbegin.o(.ctors)
 *(EXCLUDE_FILE(*crtend.o) .ctors)
 *(SORT(.ctors.*))
 *crtend.o(.ctors)
                0x0040017c                . = ALIGN (0x4)
 *(.fini)
 .fini          0x0040017c        0x4 d:/00_program_installation/microchip/xc32/v2.10/bin/bin/../../lib/gcc/pic32c/6.2.1/v7e-m/fpv5/hard/crti.o
                0x0040017c                _fini
 .fini          0x00400180        0x8 d:/00_program_installation/microchip/xc32/v2.10/bin/bin/../../lib/gcc/pic32c/6.2.1/v7e-m/fpv5/hard/crtn.o
                0x00400188                . = ALIGN (0x4)
                0x00400188                __fini_array_start = .
 *(.fini_array)
 .fini_array    0x00400188        0x4 d:/00_program_installation/microchip/xc32/v2.10/bin/bin/../../lib/gcc/pic32c/6.2.1/v7e-m/fpv5/hard/crtbegin.o
 *(SORT(.fini_array.*))
                0x0040018c                __fini_array_end = .
 *crtbegin.o(.dtors)
 *(EXCLUDE_FILE(*crtend.o) .dtors)
 *(SORT(.dtors.*))
 *crtend.o(.dtors)
                0x0040018c                . = ALIGN (0x4)
                0x0040018c                _efixed = .
                [!provide]                PROVIDE (__exidx_start, .)

.ARM.exidx      0x0040018c        0x8
 *(.ARM.exidx* .gnu.linkonce.armexidx.*)
 .ARM.exidx     0x0040018c        0x8 d:/00_program_installation/microchip/xc32/v2.10/bin/bin/../../lib/gcc/pic32c/6.2.1/v7e-m/fpv5/hard\libgcc.a(_udivmoddi4.o)
                [!provide]                PROVIDE (__exidx_end, .)
                0x00400194                . = ALIGN (0x4)
                0x00400194                _etext = .

.bss            0x20400000      0x334
                0x20400000                . = ALIGN (0x4)
                0x20400000                __bss_start__ = .
                0x20400000                _sbss = .
                0x20400000                _szero = .
 *(COMMON)
 COMMON         0x20400000        0x1 build/default/production/_ext/1360937237/app.o
                0x20400000                appData
 *fill*         0x20400001        0x3 
 COMMON         0x20400004       0x10 build/default/production/_ext/1171490990/initialization.o
                0x20400004                sysObj
 COMMON         0x20400014      0x314 build/default/production/_ext/718466696/net_pres.o
                0x20400014                sNetPresData
                0x20400238                sNetPresSockets
 COMMON         0x20400328        0x8 build/default/production/_ext/829342655/plib_tc0.o
                0x20400328                TC0_CH0_CallbackObj
 COMMON         0x20400330        0x4 d:/00_program_installation/microchip/xc32/v2.10/bin/bin/../../lib/gcc/pic32c/6.2.1/../../../../pic32c/lib/v7e-m/fpv5/hard\libc.a(lib_a-reent.o)
                0x20400330                errno
                0x20400334                . = ALIGN (0x4)
                0x20400334                __bss_end__ = .
                0x20400334                _ebss = .
                0x20400334                _ezero = .
                0x20400334                . = ALIGN (0x4)
                0x20400334                _end = .
                0x2045ffff                _ram_end_ = ((ORIGIN (ram) + LENGTH (ram)) - 0x1)
OUTPUT(dist/default/production/berkeley_udp_relay.X.production.elf elf32-littlearm)
LOAD stack
LOAD data_init

.ARM.attributes
                0x00000000       0x2e
 .ARM.attributes
                0x00000000       0x20 d:/00_program_installation/microchip/xc32/v2.10/bin/bin/../../lib/gcc/pic32c/6.2.1/v7e-m/fpv5/hard/crti.o
 .ARM.attributes
                0x00000020       0x32 d:/00_program_installation/microchip/xc32/v2.10/bin/bin/../../lib/gcc/pic32c/6.2.1/v7e-m/fpv5/hard/crtbegin.o
 .ARM.attributes
                0x00000052       0x37 build/default/production/_ext/1360937237/main.o
 .ARM.attributes
                0x00000089       0x37 build/default/production/_ext/1360937237/app.o
 .ARM.attributes
                0x000000c0       0x37 build/default/production/_ext/1171490990/initialization.o
 .ARM.attributes
                0x000000f7       0x37 build/default/production/_ext/1171490990/tasks.o
 .ARM.attributes
                0x0000012e       0x37 build/default/production/_ext/1171490990/interrupts.o
 .ARM.attributes
                0x00000165       0x37 build/default/production/_ext/1171490990/exceptions.o
 .ARM.attributes
                0x0000019c       0x37 build/default/production/_ext/60165520/plib_clk.o
 .ARM.attributes
                0x000001d3       0x37 build/default/production/_ext/60177924/plib_pio.o
 .ARM.attributes
                0x0000020a       0x37 build/default/production/_ext/1865468468/plib_nvic.o
 .ARM.attributes
                0x00000241       0x37 build/default/production/_ext/60175264/plib_mpu.o
 .ARM.attributes
                0x00000278       0x37 build/default/production/_ext/1171490990/startup.o
 .ARM.attributes
                0x000002af       0x37 build/default/production/_ext/1881668453/sys_int.o
 .ARM.attributes
                0x000002e6       0x37 build/default/production/_ext/444070925/drv_ethphy.o
 .ARM.attributes
                0x0000031d       0x37 build/default/production/_ext/444070925/drv_extphy_smsc8740.o
 .ARM.attributes
                0x00000354       0x37 build/default/production/_ext/438849557/drv_miim.o
 .ARM.attributes
                0x0000038b       0x37 build/default/production/_ext/1546807373/drv_gmac.o
 .ARM.attributes
                0x000003c2       0x37 build/default/production/_ext/1546807373/drv_gmac_lib.o
 .ARM.attributes
                0x000003f9       0x37 build/default/production/_ext/718466696/net_pres.o
 .ARM.attributes
                0x00000430       0x37 build/default/production/_ext/101884895/sys_time.o
 .ARM.attributes
                0x00000467       0x37 build/default/production/_ext/829342655/plib_tc0.o
 .ARM.attributes
                0x0000049e       0x37 build/default/production/_ext/1033058136/arp.o
 .ARM.attributes
                0x000004d5       0x37 build/default/production/_ext/1033058136/berkeley_api.o
 .ARM.attributes
                0x0000050c       0x37 build/default/production/_ext/1033058136/dhcp.o
 .ARM.attributes
                0x00000543       0x37 build/default/production/_ext/1033058136/dns.o
 .ARM.attributes
                0x0000057a       0x37 build/default/production/_ext/1033058136/ipv4.o
 .ARM.attributes
                0x000005b1       0x37 build/default/production/_ext/1033058136/tcpip_heap_alloc.o
 .ARM.attributes
                0x000005e8       0x37 build/default/production/_ext/1033058136/tcpip_heap_internal.o
 .ARM.attributes
                0x0000061f       0x37 build/default/production/_ext/1033058136/helpers.o
 .ARM.attributes
                0x00000656       0x37 build/default/production/_ext/1033058136/hash_fnv.o
 .ARM.attributes
                0x0000068d       0x37 build/default/production/_ext/1033058136/oahash.o
 .ARM.attributes
                0x000006c4       0x37 build/default/production/_ext/1033058136/tcpip_helpers.o
 .ARM.attributes
                0x000006fb       0x37 build/default/production/_ext/1033058136/tcpip_manager.o
 .ARM.attributes
                0x00000732       0x37 build/default/production/_ext/1033058136/tcpip_notify.o
 .ARM.attributes
                0x00000769       0x37 build/default/production/_ext/1033058136/tcpip_packet.o
 .ARM.attributes
                0x000007a0       0x37 build/default/production/_ext/753841488/sys_time_h2_adapter.o
 .ARM.attributes
                0x000007d7       0x37 build/default/production/_ext/1033058136/tcp.o
 .ARM.attributes
                0x0000080e       0x37 build/default/production/_ext/1033058136/udp.o
 .ARM.attributes
                0x00000845       0x32 d:/00_program_installation/microchip/xc32/v2.10/bin/bin/../../lib/gcc/pic32c/6.2.1/../../../../pic32c/lib/v7e-m/fpv5/hard\libpic32c.a(data_init.o)
 .ARM.attributes
                0x00000877       0x20 d:/00_program_installation/microchip/xc32/v2.10/bin/bin/../../lib/gcc/pic32c/6.2.1/v7e-m/fpv5/hard\libgcc.a(_aeabi_uldivmod.o)
 .ARM.attributes
                0x00000897       0x32 d:/00_program_installation/microchip/xc32/v2.10/bin/bin/../../lib/gcc/pic32c/6.2.1/v7e-m/fpv5/hard\libgcc.a(_udivmoddi4.o)
 .ARM.attributes
                0x000008c9       0x20 d:/00_program_installation/microchip/xc32/v2.10/bin/bin/../../lib/gcc/pic32c/6.2.1/v7e-m/fpv5/hard\libgcc.a(_dvmd_tls.o)
 .ARM.attributes
                0x000008e9       0x32 d:/00_program_installation/microchip/xc32/v2.10/bin/bin/../../lib/gcc/pic32c/6.2.1/../../../../pic32c/lib/v7e-m/fpv5/hard\libc.a(lib_a-calloc.o)
 .ARM.attributes
                0x0000091b       0x32 d:/00_program_installation/microchip/xc32/v2.10/bin/bin/../../lib/gcc/pic32c/6.2.1/../../../../pic32c/lib/v7e-m/fpv5/hard\libc.a(lib_a-callocr.o)
 .ARM.attributes
                0x0000094d       0x32 d:/00_program_installation/microchip/xc32/v2.10/bin/bin/../../lib/gcc/pic32c/6.2.1/../../../../pic32c/lib/v7e-m/fpv5/hard\libc.a(lib_a-errno.o)
 .ARM.attributes
                0x0000097f       0x32 d:/00_program_installation/microchip/xc32/v2.10/bin/bin/../../lib/gcc/pic32c/6.2.1/../../../../pic32c/lib/v7e-m/fpv5/hard\libc.a(lib_a-impure.o)
 .ARM.attributes
                0x000009b1       0x32 d:/00_program_installation/microchip/xc32/v2.10/bin/bin/../../lib/gcc/pic32c/6.2.1/../../../../pic32c/lib/v7e-m/fpv5/hard\libc.a(lib_a-init.o)
 .ARM.attributes
                0x000009e3       0x32 d:/00_program_installation/microchip/xc32/v2.10/bin/bin/../../lib/gcc/pic32c/6.2.1/../../../../pic32c/lib/v7e-m/fpv5/hard\libc.a(lib_a-locale.o)
 .ARM.attributes
                0x00000a15       0x32 d:/00_program_installation/microchip/xc32/v2.10/bin/bin/../../lib/gcc/pic32c/6.2.1/../../../../pic32c/lib/v7e-m/fpv5/hard\libc.a(lib_a-malloc.o)
 .ARM.attributes
                0x00000a47       0x32 d:/00_program_installation/microchip/xc32/v2.10/bin/bin/../../lib/gcc/pic32c/6.2.1/../../../../pic32c/lib/v7e-m/fpv5/hard\libc.a(lib_a-mallocr.o)
 .ARM.attributes
                0x00000a79       0x32 d:/00_program_installation/microchip/xc32/v2.10/bin/bin/../../lib/gcc/pic32c/6.2.1/../../../../pic32c/lib/v7e-m/fpv5/hard\libc.a(lib_a-mbtowc_r.o)
 .ARM.attributes
                0x00000aab       0x32 d:/00_program_installation/microchip/xc32/v2.10/bin/bin/../../lib/gcc/pic32c/6.2.1/../../../../pic32c/lib/v7e-m/fpv5/hard\libc.a(lib_a-memcmp.o)
 .ARM.attributes
                0x00000add       0x1e d:/00_program_installation/microchip/xc32/v2.10/bin/bin/../../lib/gcc/pic32c/6.2.1/../../../../pic32c/lib/v7e-m/fpv5/hard\libc.a(lib_a-memcpy.o)
 .ARM.attributes
                0x00000afb       0x32 d:/00_program_installation/microchip/xc32/v2.10/bin/bin/../../lib/gcc/pic32c/6.2.1/../../../../pic32c/lib/v7e-m/fpv5/hard\libc.a(lib_a-memset.o)
 .ARM.attributes
                0x00000b2d       0x32 d:/00_program_installation/microchip/xc32/v2.10/bin/bin/../../lib/gcc/pic32c/6.2.1/../../../../pic32c/lib/v7e-m/fpv5/hard\libc.a(lib_a-mlock.o)
 .ARM.attributes
                0x00000b5f       0x32 d:/00_program_installation/microchip/xc32/v2.10/bin/bin/../../lib/gcc/pic32c/6.2.1/../../../../pic32c/lib/v7e-m/fpv5/hard\libc.a(lib_a-rand.o)
 .ARM.attributes
                0x00000b91       0x32 d:/00_program_installation/microchip/xc32/v2.10/bin/bin/../../lib/gcc/pic32c/6.2.1/../../../../pic32c/lib/v7e-m/fpv5/hard\libc.a(lib_a-sbrkr.o)
 .ARM.attributes
                0x00000bc3       0x1e d:/00_program_installation/microchip/xc32/v2.10/bin/bin/../../lib/gcc/pic32c/6.2.1/../../../../pic32c/lib/v7e-m/fpv5/hard\libc.a(lib_a-strcmp.o)
 .ARM.attributes
                0x00000be1       0x1e d:/00_program_installation/microchip/xc32/v2.10/bin/bin/../../lib/gcc/pic32c/6.2.1/../../../../pic32c/lib/v7e-m/fpv5/hard\libc.a(lib_a-strlen.o)
 .ARM.attributes
                0x00000bff       0x32 d:/00_program_installation/microchip/xc32/v2.10/bin/bin/../../lib/gcc/pic32c/6.2.1/../../../../pic32c/lib/v7e-m/fpv5/hard\libc.a(lib_a-strncpy.o)
 .ARM.attributes
                0x00000c31       0x32 d:/00_program_installation/microchip/xc32/v2.10/bin/bin/../../lib/gcc/pic32c/6.2.1/../../../../pic32c/lib/v7e-m/fpv5/hard\libc.a(lib_a-wctomb_r.o)
 .ARM.attributes
                0x00000c63       0x32 d:/00_program_installation/microchip/xc32/v2.10/bin/bin/../../lib/gcc/pic32c/6.2.1/../../../../pic32c/lib/v7e-m/fpv5/hard\libc.a(snprintf.cdnopsuxX.o)
 .ARM.attributes
                0x00000c95       0x32 d:/00_program_installation/microchip/xc32/v2.10/bin/bin/../../lib/gcc/pic32c/6.2.1/../../../../pic32c/lib/v7e-m/fpv5/hard\libc.a(vfprintf.cdnopsuxX.o)
 .ARM.attributes
                0x00000cc7       0x32 d:/00_program_installation/microchip/xc32/v2.10/bin/bin/../../lib/gcc/pic32c/6.2.1/../../../../pic32c/lib/v7e-m/fpv5/hard\libc.a(vsnprintf.cdnopsuxX.o)
 .ARM.attributes
                0x00000cf9       0x32 d:/00_program_installation/microchip/xc32/v2.10/bin/bin/../../lib/gcc/pic32c/6.2.1/../../../../pic32c/lib/v7e-m/fpv5/hard\libc.a(lib_a-__call_atexit.o)
 .ARM.attributes
                0x00000d2b       0x32 d:/00_program_installation/microchip/xc32/v2.10/bin/bin/../../lib/gcc/pic32c/6.2.1/../../../../pic32c/lib/v7e-m/fpv5/hard\libc.a(lib_a-atexit.o)
 .ARM.attributes
                0x00000d5d       0x32 d:/00_program_installation/microchip/xc32/v2.10/bin/bin/../../lib/gcc/pic32c/6.2.1/../../../../pic32c/lib/v7e-m/fpv5/hard\libc.a(lib_a-ctype_.o)
 .ARM.attributes
                0x00000d8f       0x32 d:/00_program_installation/microchip/xc32/v2.10/bin/bin/../../lib/gcc/pic32c/6.2.1/../../../../pic32c/lib/v7e-m/fpv5/hard\libc.a(lib_a-fflush.o)
 .ARM.attributes
                0x00000dc1       0x32 d:/00_program_installation/microchip/xc32/v2.10/bin/bin/../../lib/gcc/pic32c/6.2.1/../../../../pic32c/lib/v7e-m/fpv5/hard\libc.a(lib_a-findfp.o)
 .ARM.attributes
                0x00000df3       0x32 d:/00_program_installation/microchip/xc32/v2.10/bin/bin/../../lib/gcc/pic32c/6.2.1/../../../../pic32c/lib/v7e-m/fpv5/hard\libc.a(lib_a-fini.o)
 .ARM.attributes
                0x00000e25       0x32 d:/00_program_installation/microchip/xc32/v2.10/bin/bin/../../lib/gcc/pic32c/6.2.1/../../../../pic32c/lib/v7e-m/fpv5/hard\libc.a(lib_a-freer.o)
 .ARM.attributes
                0x00000e57       0x32 d:/00_program_installation/microchip/xc32/v2.10/bin/bin/../../lib/gcc/pic32c/6.2.1/../../../../pic32c/lib/v7e-m/fpv5/hard\libc.a(lib_a-fwalk.o)
 .ARM.attributes
                0x00000e89       0x1e d:/00_program_installation/microchip/xc32/v2.10/bin/bin/../../lib/gcc/pic32c/6.2.1/../../../../pic32c/lib/v7e-m/fpv5/hard\libc.a(lib_a-memchr.o)
 .ARM.attributes
                0x00000ea7       0x32 d:/00_program_installation/microchip/xc32/v2.10/bin/bin/../../lib/gcc/pic32c/6.2.1/../../../../pic32c/lib/v7e-m/fpv5/hard\libc.a(lib_a-reent.o)
 .ARM.attributes
                0x00000ed9       0x32 d:/00_program_installation/microchip/xc32/v2.10/bin/bin/../../lib/gcc/pic32c/6.2.1/../../../../pic32c/lib/v7e-m/fpv5/hard\libc.a(lib_a-stdio.o)
 .ARM.attributes
                0x00000f0b       0x32 d:/00_program_installation/microchip/xc32/v2.10/bin/bin/../../lib/gcc/pic32c/6.2.1/../../../../pic32c/lib/v7e-m/fpv5/hard\libc.a(lib_a-vfiprintf.o)
 .ARM.attributes
                0x00000f3d       0x32 d:/00_program_installation/microchip/xc32/v2.10/bin/bin/../../lib/gcc/pic32c/6.2.1/../../../../pic32c/lib/v7e-m/fpv5/hard\libc.a(lib_a-writer.o)
 .ARM.attributes
                0x00000f6f       0x32 d:/00_program_installation/microchip/xc32/v2.10/bin/bin/../../lib/gcc/pic32c/6.2.1/../../../../pic32c/lib/v7e-m/fpv5/hard\libc.a(lib_a-wsetup.o)
 .ARM.attributes
                0x00000fa1       0x32 d:/00_program_installation/microchip/xc32/v2.10/bin/bin/../../lib/gcc/pic32c/6.2.1/../../../../pic32c/lib/v7e-m/fpv5/hard\libc.a(lib_a-__atexit.o)
 .ARM.attributes
                0x00000fd3       0x32 d:/00_program_installation/microchip/xc32/v2.10/bin/bin/../../lib/gcc/pic32c/6.2.1/../../../../pic32c/lib/v7e-m/fpv5/hard\libc.a(lib_a-closer.o)
 .ARM.attributes
                0x00001005       0x32 d:/00_program_installation/microchip/xc32/v2.10/bin/bin/../../lib/gcc/pic32c/6.2.1/../../../../pic32c/lib/v7e-m/fpv5/hard\libc.a(lib_a-fclose.o)
 .ARM.attributes
                0x00001037       0x32 d:/00_program_installation/microchip/xc32/v2.10/bin/bin/../../lib/gcc/pic32c/6.2.1/../../../../pic32c/lib/v7e-m/fpv5/hard\libc.a(lib_a-fputwc.o)
 .ARM.attributes
                0x00001069       0x32 d:/00_program_installation/microchip/xc32/v2.10/bin/bin/../../lib/gcc/pic32c/6.2.1/../../../../pic32c/lib/v7e-m/fpv5/hard\libc.a(lib_a-fvwrite.o)
 .ARM.attributes
                0x0000109b       0x32 d:/00_program_installation/microchip/xc32/v2.10/bin/bin/../../lib/gcc/pic32c/6.2.1/../../../../pic32c/lib/v7e-m/fpv5/hard\libc.a(lib_a-lseekr.o)
 .ARM.attributes
                0x000010cd       0x32 d:/00_program_installation/microchip/xc32/v2.10/bin/bin/../../lib/gcc/pic32c/6.2.1/../../../../pic32c/lib/v7e-m/fpv5/hard\libc.a(lib_a-makebuf.o)
 .ARM.attributes
                0x000010ff       0x32 d:/00_program_installation/microchip/xc32/v2.10/bin/bin/../../lib/gcc/pic32c/6.2.1/../../../../pic32c/lib/v7e-m/fpv5/hard\libc.a(lib_a-memmove.o)
 .ARM.attributes
                0x00001131       0x32 d:/00_program_installation/microchip/xc32/v2.10/bin/bin/../../lib/gcc/pic32c/6.2.1/../../../../pic32c/lib/v7e-m/fpv5/hard\libc.a(lib_a-readr.o)
 .ARM.attributes
                0x00001163       0x32 d:/00_program_installation/microchip/xc32/v2.10/bin/bin/../../lib/gcc/pic32c/6.2.1/../../../../pic32c/lib/v7e-m/fpv5/hard\libc.a(lib_a-reallocr.o)
 .ARM.attributes
                0x00001195       0x32 d:/00_program_installation/microchip/xc32/v2.10/bin/bin/../../lib/gcc/pic32c/6.2.1/../../../../pic32c/lib/v7e-m/fpv5/hard\libc.a(lib_a-wbuf.o)
 .ARM.attributes
                0x000011c7       0x32 d:/00_program_installation/microchip/xc32/v2.10/bin/bin/../../lib/gcc/pic32c/6.2.1/../../../../pic32c/lib/v7e-m/fpv5/hard\libc.a(lib_a-wcrtomb.o)
 .ARM.attributes
                0x000011f9       0x32 d:/00_program_installation/microchip/xc32/v2.10/bin/bin/../../lib/gcc/pic32c/6.2.1/../../../../pic32c/lib/v7e-m/fpv5/hard\libc.a(lib_a-fstatr.o)
 .ARM.attributes
                0x0000122b       0x32 d:/00_program_installation/microchip/xc32/v2.10/bin/bin/../../lib/gcc/pic32c/6.2.1/../../../../pic32c/lib/v7e-m/fpv5/hard\libc.a(lib_a-isattyr.o)
 .ARM.attributes
                0x0000125d       0x32 d:/00_program_installation/microchip/xc32/v2.10/bin/bin/../../lib/gcc/pic32c/6.2.1/../../../../pic32c/lib/v7e-m/fpv5/hard\libpic32c.a(close.o)
 .ARM.attributes
                0x0000128f       0x32 d:/00_program_installation/microchip/xc32/v2.10/bin/bin/../../lib/gcc/pic32c/6.2.1/../../../../pic32c/lib/v7e-m/fpv5/hard\libpic32c.a(fstat.o)
 .ARM.attributes
                0x000012c1       0x32 d:/00_program_installation/microchip/xc32/v2.10/bin/bin/../../lib/gcc/pic32c/6.2.1/../../../../pic32c/lib/v7e-m/fpv5/hard\libpic32c.a(isatty.o)
 .ARM.attributes
                0x000012f3       0x32 d:/00_program_installation/microchip/xc32/v2.10/bin/bin/../../lib/gcc/pic32c/6.2.1/../../../../pic32c/lib/v7e-m/fpv5/hard\libpic32c.a(lseek.o)
 .ARM.attributes
                0x00001325       0x32 d:/00_program_installation/microchip/xc32/v2.10/bin/bin/../../lib/gcc/pic32c/6.2.1/../../../../pic32c/lib/v7e-m/fpv5/hard\libpic32c.a(read.o)
 .ARM.attributes
                0x00001357       0x32 d:/00_program_installation/microchip/xc32/v2.10/bin/bin/../../lib/gcc/pic32c/6.2.1/../../../../pic32c/lib/v7e-m/fpv5/hard\libpic32c.a(sbrk.o)
 .ARM.attributes
                0x00001389       0x32 d:/00_program_installation/microchip/xc32/v2.10/bin/bin/../../lib/gcc/pic32c/6.2.1/../../../../pic32c/lib/v7e-m/fpv5/hard\libpic32c.a(write.o)
 .ARM.attributes
                0x000013bb       0x32 d:/00_program_installation/microchip/xc32/v2.10/bin/bin/../../lib/gcc/pic32c/6.2.1/../../../../pic32c/lib/v7e-m/fpv5/hard\libpic32c.a(_mon_getc.o)
 .ARM.attributes
                0x000013ed       0x32 d:/00_program_installation/microchip/xc32/v2.10/bin/bin/../../lib/gcc/pic32c/6.2.1/../../../../pic32c/lib/v7e-m/fpv5/hard\libpic32c.a(_mon_putc.o)
 .ARM.attributes
                0x0000141f       0x20 d:/00_program_installation/microchip/xc32/v2.10/bin/bin/../../lib/gcc/pic32c/6.2.1/v7e-m/fpv5/hard/crtn.o

.comment        0x00000000       0x3c
 .comment       0x00000000       0x3c d:/00_program_installation/microchip/xc32/v2.10/bin/bin/../../lib/gcc/pic32c/6.2.1/v7e-m/fpv5/hard/crtbegin.o
                                 0x3d (size before relaxing)
 .comment       0x0000003c       0x3d build/default/production/_ext/1360937237/main.o
 .comment       0x0000003c       0x3d build/default/production/_ext/1360937237/app.o
 .comment       0x0000003c       0x3d build/default/production/_ext/1171490990/initialization.o
 .comment       0x0000003c       0x3d build/default/production/_ext/1171490990/tasks.o
 .comment       0x0000003c       0x3d build/default/production/_ext/1171490990/interrupts.o
 .comment       0x0000003c       0x3d build/default/production/_ext/1171490990/exceptions.o
 .comment       0x0000003c       0x3d build/default/production/_ext/60165520/plib_clk.o
 .comment       0x0000003c       0x3d build/default/production/_ext/60177924/plib_pio.o
 .comment       0x0000003c       0x3d build/default/production/_ext/1865468468/plib_nvic.o
 .comment       0x0000003c       0x3d build/default/production/_ext/60175264/plib_mpu.o
 .comment       0x0000003c       0x3d build/default/production/_ext/1171490990/startup.o
 .comment       0x0000003c       0x3d build/default/production/_ext/1881668453/sys_int.o
 .comment       0x0000003c       0x3d build/default/production/_ext/444070925/drv_ethphy.o
 .comment       0x0000003c       0x3d build/default/production/_ext/444070925/drv_extphy_smsc8740.o
 .comment       0x0000003c       0x3d build/default/production/_ext/438849557/drv_miim.o
 .comment       0x0000003c       0x3d build/default/production/_ext/1546807373/drv_gmac.o
 .comment       0x0000003c       0x3d build/default/production/_ext/1546807373/drv_gmac_lib.o
 .comment       0x0000003c       0x3d build/default/production/_ext/718466696/net_pres.o
 .comment       0x0000003c       0x3d build/default/production/_ext/101884895/sys_time.o
 .comment       0x0000003c       0x3d build/default/production/_ext/829342655/plib_tc0.o
 .comment       0x0000003c       0x3d build/default/production/_ext/1033058136/arp.o
 .comment       0x0000003c       0x3d build/default/production/_ext/1033058136/berkeley_api.o
 .comment       0x0000003c       0x3d build/default/production/_ext/1033058136/dhcp.o
 .comment       0x0000003c       0x3d build/default/production/_ext/1033058136/dns.o
 .comment       0x0000003c       0x3d build/default/production/_ext/1033058136/ipv4.o
 .comment       0x0000003c       0x3d build/default/production/_ext/1033058136/tcpip_heap_alloc.o
 .comment       0x0000003c       0x3d build/default/production/_ext/1033058136/tcpip_heap_internal.o
 .comment       0x0000003c       0x3d build/default/production/_ext/1033058136/helpers.o
 .comment       0x0000003c       0x3d build/default/production/_ext/1033058136/hash_fnv.o
 .comment       0x0000003c       0x3d build/default/production/_ext/1033058136/oahash.o
 .comment       0x0000003c       0x3d build/default/production/_ext/1033058136/tcpip_helpers.o
 .comment       0x0000003c       0x3d build/default/production/_ext/1033058136/tcpip_manager.o
 .comment       0x0000003c       0x3d build/default/production/_ext/1033058136/tcpip_notify.o
 .comment       0x0000003c       0x3d build/default/production/_ext/1033058136/tcpip_packet.o
 .comment       0x0000003c       0x3d build/default/production/_ext/753841488/sys_time_h2_adapter.o
 .comment       0x0000003c       0x3d build/default/production/_ext/1033058136/tcp.o
 .comment       0x0000003c       0x3d build/default/production/_ext/1033058136/udp.o
 .comment       0x0000003c       0x3d d:/00_program_installation/microchip/xc32/v2.10/bin/bin/../../lib/gcc/pic32c/6.2.1/../../../../pic32c/lib/v7e-m/fpv5/hard\libpic32c.a(data_init.o)
 .comment       0x0000003c       0x3d d:/00_program_installation/microchip/xc32/v2.10/bin/bin/../../lib/gcc/pic32c/6.2.1/v7e-m/fpv5/hard\libgcc.a(_udivmoddi4.o)
 .comment       0x0000003c       0x3d d:/00_program_installation/microchip/xc32/v2.10/bin/bin/../../lib/gcc/pic32c/6.2.1/../../../../pic32c/lib/v7e-m/fpv5/hard\libc.a(lib_a-calloc.o)
 .comment       0x0000003c       0x3d d:/00_program_installation/microchip/xc32/v2.10/bin/bin/../../lib/gcc/pic32c/6.2.1/../../../../pic32c/lib/v7e-m/fpv5/hard\libc.a(lib_a-callocr.o)
 .comment       0x0000003c       0x3d d:/00_program_installation/microchip/xc32/v2.10/bin/bin/../../lib/gcc/pic32c/6.2.1/../../../../pic32c/lib/v7e-m/fpv5/hard\libc.a(lib_a-errno.o)
 .comment       0x0000003c       0x3d d:/00_program_installation/microchip/xc32/v2.10/bin/bin/../../lib/gcc/pic32c/6.2.1/../../../../pic32c/lib/v7e-m/fpv5/hard\libc.a(lib_a-impure.o)
 .comment       0x0000003c       0x3d d:/00_program_installation/microchip/xc32/v2.10/bin/bin/../../lib/gcc/pic32c/6.2.1/../../../../pic32c/lib/v7e-m/fpv5/hard\libc.a(lib_a-init.o)
 .comment       0x0000003c       0x3d d:/00_program_installation/microchip/xc32/v2.10/bin/bin/../../lib/gcc/pic32c/6.2.1/../../../../pic32c/lib/v7e-m/fpv5/hard\libc.a(lib_a-locale.o)
 .comment       0x0000003c       0x3d d:/00_program_installation/microchip/xc32/v2.10/bin/bin/../../lib/gcc/pic32c/6.2.1/../../../../pic32c/lib/v7e-m/fpv5/hard\libc.a(lib_a-malloc.o)
 .comment       0x0000003c       0x3d d:/00_program_installation/microchip/xc32/v2.10/bin/bin/../../lib/gcc/pic32c/6.2.1/../../../../pic32c/lib/v7e-m/fpv5/hard\libc.a(lib_a-mallocr.o)
 .comment       0x0000003c       0x3d d:/00_program_installation/microchip/xc32/v2.10/bin/bin/../../lib/gcc/pic32c/6.2.1/../../../../pic32c/lib/v7e-m/fpv5/hard\libc.a(lib_a-mbtowc_r.o)
 .comment       0x0000003c       0x3d d:/00_program_installation/microchip/xc32/v2.10/bin/bin/../../lib/gcc/pic32c/6.2.1/../../../../pic32c/lib/v7e-m/fpv5/hard\libc.a(lib_a-memcmp.o)
 .comment       0x0000003c       0x3d d:/00_program_installation/microchip/xc32/v2.10/bin/bin/../../lib/gcc/pic32c/6.2.1/../../../../pic32c/lib/v7e-m/fpv5/hard\libc.a(lib_a-memset.o)
 .comment       0x0000003c       0x3d d:/00_program_installation/microchip/xc32/v2.10/bin/bin/../../lib/gcc/pic32c/6.2.1/../../../../pic32c/lib/v7e-m/fpv5/hard\libc.a(lib_a-mlock.o)
 .comment       0x0000003c       0x3d d:/00_program_installation/microchip/xc32/v2.10/bin/bin/../../lib/gcc/pic32c/6.2.1/../../../../pic32c/lib/v7e-m/fpv5/hard\libc.a(lib_a-rand.o)
 .comment       0x0000003c       0x3d d:/00_program_installation/microchip/xc32/v2.10/bin/bin/../../lib/gcc/pic32c/6.2.1/../../../../pic32c/lib/v7e-m/fpv5/hard\libc.a(lib_a-sbrkr.o)
 .comment       0x0000003c       0x3d d:/00_program_installation/microchip/xc32/v2.10/bin/bin/../../lib/gcc/pic32c/6.2.1/../../../../pic32c/lib/v7e-m/fpv5/hard\libc.a(lib_a-strncpy.o)
 .comment       0x0000003c       0x3d d:/00_program_installation/microchip/xc32/v2.10/bin/bin/../../lib/gcc/pic32c/6.2.1/../../../../pic32c/lib/v7e-m/fpv5/hard\libc.a(lib_a-wctomb_r.o)
 .comment       0x0000003c       0x3d d:/00_program_installation/microchip/xc32/v2.10/bin/bin/../../lib/gcc/pic32c/6.2.1/../../../../pic32c/lib/v7e-m/fpv5/hard\libc.a(snprintf.cdnopsuxX.o)
 .comment       0x0000003c       0x3d d:/00_program_installation/microchip/xc32/v2.10/bin/bin/../../lib/gcc/pic32c/6.2.1/../../../../pic32c/lib/v7e-m/fpv5/hard\libc.a(vfprintf.cdnopsuxX.o)
 .comment       0x0000003c       0x3d d:/00_program_installation/microchip/xc32/v2.10/bin/bin/../../lib/gcc/pic32c/6.2.1/../../../../pic32c/lib/v7e-m/fpv5/hard\libc.a(vsnprintf.cdnopsuxX.o)
 .comment       0x0000003c       0x3d d:/00_program_installation/microchip/xc32/v2.10/bin/bin/../../lib/gcc/pic32c/6.2.1/../../../../pic32c/lib/v7e-m/fpv5/hard\libc.a(lib_a-__call_atexit.o)
 .comment       0x0000003c       0x3d d:/00_program_installation/microchip/xc32/v2.10/bin/bin/../../lib/gcc/pic32c/6.2.1/../../../../pic32c/lib/v7e-m/fpv5/hard\libc.a(lib_a-atexit.o)
 .comment       0x0000003c       0x3d d:/00_program_installation/microchip/xc32/v2.10/bin/bin/../../lib/gcc/pic32c/6.2.1/../../../../pic32c/lib/v7e-m/fpv5/hard\libc.a(lib_a-ctype_.o)
 .comment       0x0000003c       0x3d d:/00_program_installation/microchip/xc32/v2.10/bin/bin/../../lib/gcc/pic32c/6.2.1/../../../../pic32c/lib/v7e-m/fpv5/hard\libc.a(lib_a-fflush.o)
 .comment       0x0000003c       0x3d d:/00_program_installation/microchip/xc32/v2.10/bin/bin/../../lib/gcc/pic32c/6.2.1/../../../../pic32c/lib/v7e-m/fpv5/hard\libc.a(lib_a-findfp.o)
 .comment       0x0000003c       0x3d d:/00_program_installation/microchip/xc32/v2.10/bin/bin/../../lib/gcc/pic32c/6.2.1/../../../../pic32c/lib/v7e-m/fpv5/hard\libc.a(lib_a-fini.o)
 .comment       0x0000003c       0x3d d:/00_program_installation/microchip/xc32/v2.10/bin/bin/../../lib/gcc/pic32c/6.2.1/../../../../pic32c/lib/v7e-m/fpv5/hard\libc.a(lib_a-freer.o)
 .comment       0x0000003c       0x3d d:/00_program_installation/microchip/xc32/v2.10/bin/bin/../../lib/gcc/pic32c/6.2.1/../../../../pic32c/lib/v7e-m/fpv5/hard\libc.a(lib_a-fwalk.o)
 .comment       0x0000003c       0x3d d:/00_program_installation/microchip/xc32/v2.10/bin/bin/../../lib/gcc/pic32c/6.2.1/../../../../pic32c/lib/v7e-m/fpv5/hard\libc.a(lib_a-reent.o)
 .comment       0x0000003c       0x3d d:/00_program_installation/microchip/xc32/v2.10/bin/bin/../../lib/gcc/pic32c/6.2.1/../../../../pic32c/lib/v7e-m/fpv5/hard\libc.a(lib_a-stdio.o)
 .comment       0x0000003c       0x3d d:/00_program_installation/microchip/xc32/v2.10/bin/bin/../../lib/gcc/pic32c/6.2.1/../../../../pic32c/lib/v7e-m/fpv5/hard\libc.a(lib_a-vfiprintf.o)
 .comment       0x0000003c       0x3d d:/00_program_installation/microchip/xc32/v2.10/bin/bin/../../lib/gcc/pic32c/6.2.1/../../../../pic32c/lib/v7e-m/fpv5/hard\libc.a(lib_a-writer.o)
 .comment       0x0000003c       0x3d d:/00_program_installation/microchip/xc32/v2.10/bin/bin/../../lib/gcc/pic32c/6.2.1/../../../../pic32c/lib/v7e-m/fpv5/hard\libc.a(lib_a-wsetup.o)
 .comment       0x0000003c       0x3d d:/00_program_installation/microchip/xc32/v2.10/bin/bin/../../lib/gcc/pic32c/6.2.1/../../../../pic32c/lib/v7e-m/fpv5/hard\libc.a(lib_a-__atexit.o)
 .comment       0x0000003c       0x3d d:/00_program_installation/microchip/xc32/v2.10/bin/bin/../../lib/gcc/pic32c/6.2.1/../../../../pic32c/lib/v7e-m/fpv5/hard\libc.a(lib_a-closer.o)
 .comment       0x0000003c       0x3d d:/00_program_installation/microchip/xc32/v2.10/bin/bin/../../lib/gcc/pic32c/6.2.1/../../../../pic32c/lib/v7e-m/fpv5/hard\libc.a(lib_a-fclose.o)
 .comment       0x0000003c       0x3d d:/00_program_installation/microchip/xc32/v2.10/bin/bin/../../lib/gcc/pic32c/6.2.1/../../../../pic32c/lib/v7e-m/fpv5/hard\libc.a(lib_a-fputwc.o)
 .comment       0x0000003c       0x3d d:/00_program_installation/microchip/xc32/v2.10/bin/bin/../../lib/gcc/pic32c/6.2.1/../../../../pic32c/lib/v7e-m/fpv5/hard\libc.a(lib_a-fvwrite.o)
 .comment       0x0000003c       0x3d d:/00_program_installation/microchip/xc32/v2.10/bin/bin/../../lib/gcc/pic32c/6.2.1/../../../../pic32c/lib/v7e-m/fpv5/hard\libc.a(lib_a-lseekr.o)
 .comment       0x0000003c       0x3d d:/00_program_installation/microchip/xc32/v2.10/bin/bin/../../lib/gcc/pic32c/6.2.1/../../../../pic32c/lib/v7e-m/fpv5/hard\libc.a(lib_a-makebuf.o)
 .comment       0x0000003c       0x3d d:/00_program_installation/microchip/xc32/v2.10/bin/bin/../../lib/gcc/pic32c/6.2.1/../../../../pic32c/lib/v7e-m/fpv5/hard\libc.a(lib_a-memmove.o)
 .comment       0x0000003c       0x3d d:/00_program_installation/microchip/xc32/v2.10/bin/bin/../../lib/gcc/pic32c/6.2.1/../../../../pic32c/lib/v7e-m/fpv5/hard\libc.a(lib_a-readr.o)
 .comment       0x0000003c       0x3d d:/00_program_installation/microchip/xc32/v2.10/bin/bin/../../lib/gcc/pic32c/6.2.1/../../../../pic32c/lib/v7e-m/fpv5/hard\libc.a(lib_a-reallocr.o)
 .comment       0x0000003c       0x3d d:/00_program_installation/microchip/xc32/v2.10/bin/bin/../../lib/gcc/pic32c/6.2.1/../../../../pic32c/lib/v7e-m/fpv5/hard\libc.a(lib_a-wbuf.o)
 .comment       0x0000003c       0x3d d:/00_program_installation/microchip/xc32/v2.10/bin/bin/../../lib/gcc/pic32c/6.2.1/../../../../pic32c/lib/v7e-m/fpv5/hard\libc.a(lib_a-wcrtomb.o)
 .comment       0x0000003c       0x3d d:/00_program_installation/microchip/xc32/v2.10/bin/bin/../../lib/gcc/pic32c/6.2.1/../../../../pic32c/lib/v7e-m/fpv5/hard\libc.a(lib_a-fstatr.o)
 .comment       0x0000003c       0x3d d:/00_program_installation/microchip/xc32/v2.10/bin/bin/../../lib/gcc/pic32c/6.2.1/../../../../pic32c/lib/v7e-m/fpv5/hard\libc.a(lib_a-isattyr.o)
 .comment       0x0000003c       0x3d d:/00_program_installation/microchip/xc32/v2.10/bin/bin/../../lib/gcc/pic32c/6.2.1/../../../../pic32c/lib/v7e-m/fpv5/hard\libpic32c.a(close.o)
 .comment       0x0000003c       0x3d d:/00_program_installation/microchip/xc32/v2.10/bin/bin/../../lib/gcc/pic32c/6.2.1/../../../../pic32c/lib/v7e-m/fpv5/hard\libpic32c.a(fstat.o)
 .comment       0x0000003c       0x3d d:/00_program_installation/microchip/xc32/v2.10/bin/bin/../../lib/gcc/pic32c/6.2.1/../../../../pic32c/lib/v7e-m/fpv5/hard\libpic32c.a(isatty.o)
 .comment       0x0000003c       0x3d d:/00_program_installation/microchip/xc32/v2.10/bin/bin/../../lib/gcc/pic32c/6.2.1/../../../../pic32c/lib/v7e-m/fpv5/hard\libpic32c.a(lseek.o)
 .comment       0x0000003c       0x3d d:/00_program_installation/microchip/xc32/v2.10/bin/bin/../../lib/gcc/pic32c/6.2.1/../../../../pic32c/lib/v7e-m/fpv5/hard\libpic32c.a(read.o)
 .comment       0x0000003c       0x3d d:/00_program_installation/microchip/xc32/v2.10/bin/bin/../../lib/gcc/pic32c/6.2.1/../../../../pic32c/lib/v7e-m/fpv5/hard\libpic32c.a(sbrk.o)
 .comment       0x0000003c       0x3d d:/00_program_installation/microchip/xc32/v2.10/bin/bin/../../lib/gcc/pic32c/6.2.1/../../../../pic32c/lib/v7e-m/fpv5/hard\libpic32c.a(write.o)
 .comment       0x0000003c       0x3d d:/00_program_installation/microchip/xc32/v2.10/bin/bin/../../lib/gcc/pic32c/6.2.1/../../../../pic32c/lib/v7e-m/fpv5/hard\libpic32c.a(_mon_getc.o)
 .comment       0x0000003c       0x3d d:/00_program_installation/microchip/xc32/v2.10/bin/bin/../../lib/gcc/pic32c/6.2.1/../../../../pic32c/lib/v7e-m/fpv5/hard\libpic32c.a(_mon_putc.o)

.debug_info     0x00000000    0xf4dbd
 .debug_info    0x00000000     0x437e build/default/production/_ext/1360937237/main.o
 .debug_info    0x0000437e      0xea3 build/default/production/_ext/1360937237/app.o
 .debug_info    0x00005221     0x70e3 build/default/production/_ext/1171490990/initialization.o
 .debug_info    0x0000c304     0x43a9 build/default/production/_ext/1171490990/tasks.o
 .debug_info    0x000106ad     0x4e3f build/default/production/_ext/1171490990/interrupts.o
 .debug_info    0x000154ec     0x441e build/default/production/_ext/1171490990/exceptions.o
 .debug_info    0x0001990a      0x911 build/default/production/_ext/60165520/plib_clk.o
 .debug_info    0x0001a21b      0xcc3 build/default/production/_ext/60177924/plib_pio.o
 .debug_info    0x0001aede      0xf22 build/default/production/_ext/1865468468/plib_nvic.o
 .debug_info    0x0001be00      0x8a2 build/default/production/_ext/60175264/plib_mpu.o
 .debug_info    0x0001c6a2     0x4d22 build/default/production/_ext/1171490990/startup.o
 .debug_info    0x000213c4      0xbeb build/default/production/_ext/1881668453/sys_int.o
 .debug_info    0x00021faf     0x85bd build/default/production/_ext/444070925/drv_ethphy.o
 .debug_info    0x0002a56c     0x31c9 build/default/production/_ext/444070925/drv_extphy_smsc8740.o
 .debug_info    0x0002d735     0x591a build/default/production/_ext/438849557/drv_miim.o
 .debug_info    0x0003304f     0xa63a build/default/production/_ext/1546807373/drv_gmac.o
 .debug_info    0x0003d689     0x8c34 build/default/production/_ext/1546807373/drv_gmac_lib.o
 .debug_info    0x000462bd     0x3adc build/default/production/_ext/718466696/net_pres.o
 .debug_info    0x00049d99     0x2b9d build/default/production/_ext/101884895/sys_time.o
 .debug_info    0x0004c936      0xefd build/default/production/_ext/829342655/plib_tc0.o
 .debug_info    0x0004d833     0x8541 build/default/production/_ext/1033058136/arp.o
 .debug_info    0x00055d74     0x8b5b build/default/production/_ext/1033058136/berkeley_api.o
 .debug_info    0x0005e8cf     0xad3f build/default/production/_ext/1033058136/dhcp.o
 .debug_info    0x0006960e     0x916a build/default/production/_ext/1033058136/dns.o
 .debug_info    0x00072778     0x7de5 build/default/production/_ext/1033058136/ipv4.o
 .debug_info    0x0007a55d     0x4533 build/default/production/_ext/1033058136/tcpip_heap_alloc.o
 .debug_info    0x0007ea90     0x5437 build/default/production/_ext/1033058136/tcpip_heap_internal.o
 .debug_info    0x00083ec7     0x10f9 build/default/production/_ext/1033058136/helpers.o
 .debug_info    0x00084fc0      0xf16 build/default/production/_ext/1033058136/hash_fnv.o
 .debug_info    0x00085ed6     0x1590 build/default/production/_ext/1033058136/oahash.o
 .debug_info    0x00087466     0x81cd build/default/production/_ext/1033058136/tcpip_helpers.o
 .debug_info    0x0008f633     0xca02 build/default/production/_ext/1033058136/tcpip_manager.o
 .debug_info    0x0009c035     0x4382 build/default/production/_ext/1033058136/tcpip_notify.o
 .debug_info    0x000a03b7     0x539f build/default/production/_ext/1033058136/tcpip_packet.o
 .debug_info    0x000a5756      0x4fb build/default/production/_ext/753841488/sys_time_h2_adapter.o
 .debug_info    0x000a5c51     0xc986 build/default/production/_ext/1033058136/tcp.o
 .debug_info    0x000b25d7     0xa75e build/default/production/_ext/1033058136/udp.o
 .debug_info    0x000bcd35      0x29f d:/00_program_installation/microchip/xc32/v2.10/bin/bin/../../lib/gcc/pic32c/6.2.1/../../../../pic32c/lib/v7e-m/fpv5/hard\libpic32c.a(data_init.o)
 .debug_info    0x000bcfd4      0x10f d:/00_program_installation/microchip/xc32/v2.10/bin/bin/../../lib/gcc/pic32c/6.2.1/v7e-m/fpv5/hard\libgcc.a(_aeabi_uldivmod.o)
 .debug_info    0x000bd0e3     0x2288 d:/00_program_installation/microchip/xc32/v2.10/bin/bin/../../lib/gcc/pic32c/6.2.1/v7e-m/fpv5/hard\libgcc.a(_udivmoddi4.o)
 .debug_info    0x000bf36b      0x113 d:/00_program_installation/microchip/xc32/v2.10/bin/bin/../../lib/gcc/pic32c/6.2.1/v7e-m/fpv5/hard\libgcc.a(_dvmd_tls.o)
 .debug_info    0x000bf47e      0xe42 d:/00_program_installation/microchip/xc32/v2.10/bin/bin/../../lib/gcc/pic32c/6.2.1/../../../../pic32c/lib/v7e-m/fpv5/hard\libc.a(lib_a-calloc.o)
 .debug_info    0x000c02c0     0x1248 d:/00_program_installation/microchip/xc32/v2.10/bin/bin/../../lib/gcc/pic32c/6.2.1/../../../../pic32c/lib/v7e-m/fpv5/hard\libc.a(lib_a-callocr.o)
 .debug_info    0x000c1508      0xe1b d:/00_program_installation/microchip/xc32/v2.10/bin/bin/../../lib/gcc/pic32c/6.2.1/../../../../pic32c/lib/v7e-m/fpv5/hard\libc.a(lib_a-errno.o)
 .debug_info    0x000c2323      0xdde d:/00_program_installation/microchip/xc32/v2.10/bin/bin/../../lib/gcc/pic32c/6.2.1/../../../../pic32c/lib/v7e-m/fpv5/hard\libc.a(lib_a-impure.o)
 .debug_info    0x000c3101      0x40a d:/00_program_installation/microchip/xc32/v2.10/bin/bin/../../lib/gcc/pic32c/6.2.1/../../../../pic32c/lib/v7e-m/fpv5/hard\libc.a(lib_a-init.o)
 .debug_info    0x000c350b     0x1884 d:/00_program_installation/microchip/xc32/v2.10/bin/bin/../../lib/gcc/pic32c/6.2.1/../../../../pic32c/lib/v7e-m/fpv5/hard\libc.a(lib_a-locale.o)
 .debug_info    0x000c4d8f      0xe81 d:/00_program_installation/microchip/xc32/v2.10/bin/bin/../../lib/gcc/pic32c/6.2.1/../../../../pic32c/lib/v7e-m/fpv5/hard\libc.a(lib_a-malloc.o)
 .debug_info    0x000c5c10     0x155d d:/00_program_installation/microchip/xc32/v2.10/bin/bin/../../lib/gcc/pic32c/6.2.1/../../../../pic32c/lib/v7e-m/fpv5/hard\libc.a(lib_a-mallocr.o)
 .debug_info    0x000c716d     0x176c d:/00_program_installation/microchip/xc32/v2.10/bin/bin/../../lib/gcc/pic32c/6.2.1/../../../../pic32c/lib/v7e-m/fpv5/hard\libc.a(lib_a-mbtowc_r.o)
 .debug_info    0x000c88d9      0xe5a d:/00_program_installation/microchip/xc32/v2.10/bin/bin/../../lib/gcc/pic32c/6.2.1/../../../../pic32c/lib/v7e-m/fpv5/hard\libc.a(lib_a-memcmp.o)
 .debug_info    0x000c9733      0x129 d:/00_program_installation/microchip/xc32/v2.10/bin/bin/../../lib/gcc/pic32c/6.2.1/../../../../pic32c/lib/v7e-m/fpv5/hard\libc.a(lib_a-memcpy.o)
 .debug_info    0x000c985c     0x15e9 d:/00_program_installation/microchip/xc32/v2.10/bin/bin/../../lib/gcc/pic32c/6.2.1/../../../../pic32c/lib/v7e-m/fpv5/hard\libc.a(lib_a-memset.o)
 .debug_info    0x000cae45      0xe38 d:/00_program_installation/microchip/xc32/v2.10/bin/bin/../../lib/gcc/pic32c/6.2.1/../../../../pic32c/lib/v7e-m/fpv5/hard\libc.a(lib_a-mlock.o)
 .debug_info    0x000cbc7d      0xe33 d:/00_program_installation/microchip/xc32/v2.10/bin/bin/../../lib/gcc/pic32c/6.2.1/../../../../pic32c/lib/v7e-m/fpv5/hard\libc.a(lib_a-rand.o)
 .debug_info    0x000ccab0      0xece d:/00_program_installation/microchip/xc32/v2.10/bin/bin/../../lib/gcc/pic32c/6.2.1/../../../../pic32c/lib/v7e-m/fpv5/hard\libc.a(lib_a-sbrkr.o)
 .debug_info    0x000cd97e      0x128 d:/00_program_installation/microchip/xc32/v2.10/bin/bin/../../lib/gcc/pic32c/6.2.1/../../../../pic32c/lib/v7e-m/fpv5/hard\libc.a(lib_a-strcmp.o)
 .debug_info    0x000cdaa6      0x128 d:/00_program_installation/microchip/xc32/v2.10/bin/bin/../../lib/gcc/pic32c/6.2.1/../../../../pic32c/lib/v7e-m/fpv5/hard\libc.a(lib_a-strlen.o)
 .debug_info    0x000cdbce      0xe7a d:/00_program_installation/microchip/xc32/v2.10/bin/bin/../../lib/gcc/pic32c/6.2.1/../../../../pic32c/lib/v7e-m/fpv5/hard\libc.a(lib_a-strncpy.o)
 .debug_info    0x000cea48     0x1737 d:/00_program_installation/microchip/xc32/v2.10/bin/bin/../../lib/gcc/pic32c/6.2.1/../../../../pic32c/lib/v7e-m/fpv5/hard\libc.a(lib_a-wctomb_r.o)
 .debug_info    0x000d017f      0xf36 d:/00_program_installation/microchip/xc32/v2.10/bin/bin/../../lib/gcc/pic32c/6.2.1/../../../../pic32c/lib/v7e-m/fpv5/hard\libc.a(snprintf.cdnopsuxX.o)
 .debug_info    0x000d10b5     0x2137 d:/00_program_installation/microchip/xc32/v2.10/bin/bin/../../lib/gcc/pic32c/6.2.1/../../../../pic32c/lib/v7e-m/fpv5/hard\libc.a(vfprintf.cdnopsuxX.o)
 .debug_info    0x000d31ec      0xf75 d:/00_program_installation/microchip/xc32/v2.10/bin/bin/../../lib/gcc/pic32c/6.2.1/../../../../pic32c/lib/v7e-m/fpv5/hard\libc.a(vsnprintf.cdnopsuxX.o)
 .debug_info    0x000d4161      0xf5a d:/00_program_installation/microchip/xc32/v2.10/bin/bin/../../lib/gcc/pic32c/6.2.1/../../../../pic32c/lib/v7e-m/fpv5/hard\libc.a(lib_a-__call_atexit.o)
 .debug_info    0x000d50bb      0xe6f d:/00_program_installation/microchip/xc32/v2.10/bin/bin/../../lib/gcc/pic32c/6.2.1/../../../../pic32c/lib/v7e-m/fpv5/hard\libc.a(lib_a-atexit.o)
 .debug_info    0x000d5f2a     0x1569 d:/00_program_installation/microchip/xc32/v2.10/bin/bin/../../lib/gcc/pic32c/6.2.1/../../../../pic32c/lib/v7e-m/fpv5/hard\libc.a(lib_a-ctype_.o)
 .debug_info    0x000d7493     0x1342 d:/00_program_installation/microchip/xc32/v2.10/bin/bin/../../lib/gcc/pic32c/6.2.1/../../../../pic32c/lib/v7e-m/fpv5/hard\libc.a(lib_a-fflush.o)
 .debug_info    0x000d87d5     0x170a d:/00_program_installation/microchip/xc32/v2.10/bin/bin/../../lib/gcc/pic32c/6.2.1/../../../../pic32c/lib/v7e-m/fpv5/hard\libc.a(lib_a-findfp.o)
 .debug_info    0x000d9edf      0x3cf d:/00_program_installation/microchip/xc32/v2.10/bin/bin/../../lib/gcc/pic32c/6.2.1/../../../../pic32c/lib/v7e-m/fpv5/hard\libc.a(lib_a-fini.o)
 .debug_info    0x000da2ae     0x13bc d:/00_program_installation/microchip/xc32/v2.10/bin/bin/../../lib/gcc/pic32c/6.2.1/../../../../pic32c/lib/v7e-m/fpv5/hard\libc.a(lib_a-freer.o)
 .debug_info    0x000db66a     0x1255 d:/00_program_installation/microchip/xc32/v2.10/bin/bin/../../lib/gcc/pic32c/6.2.1/../../../../pic32c/lib/v7e-m/fpv5/hard\libc.a(lib_a-fwalk.o)
 .debug_info    0x000dc8bf      0x122 d:/00_program_installation/microchip/xc32/v2.10/bin/bin/../../lib/gcc/pic32c/6.2.1/../../../../pic32c/lib/v7e-m/fpv5/hard\libc.a(lib_a-memchr.o)
 .debug_info    0x000dc9e1      0xf8a d:/00_program_installation/microchip/xc32/v2.10/bin/bin/../../lib/gcc/pic32c/6.2.1/../../../../pic32c/lib/v7e-m/fpv5/hard\libc.a(lib_a-reent.o)
 .debug_info    0x000dd96b     0x140c d:/00_program_installation/microchip/xc32/v2.10/bin/bin/../../lib/gcc/pic32c/6.2.1/../../../../pic32c/lib/v7e-m/fpv5/hard\libc.a(lib_a-stdio.o)
 .debug_info    0x000ded77     0x2682 d:/00_program_installation/microchip/xc32/v2.10/bin/bin/../../lib/gcc/pic32c/6.2.1/../../../../pic32c/lib/v7e-m/fpv5/hard\libc.a(lib_a-vfiprintf.o)
 .debug_info    0x000e13f9      0xf05 d:/00_program_installation/microchip/xc32/v2.10/bin/bin/../../lib/gcc/pic32c/6.2.1/../../../../pic32c/lib/v7e-m/fpv5/hard\libc.a(lib_a-writer.o)
 .debug_info    0x000e22fe     0x11d7 d:/00_program_installation/microchip/xc32/v2.10/bin/bin/../../lib/gcc/pic32c/6.2.1/../../../../pic32c/lib/v7e-m/fpv5/hard\libc.a(lib_a-wsetup.o)
 .debug_info    0x000e34d5      0xedb d:/00_program_installation/microchip/xc32/v2.10/bin/bin/../../lib/gcc/pic32c/6.2.1/../../../../pic32c/lib/v7e-m/fpv5/hard\libc.a(lib_a-__atexit.o)
 .debug_info    0x000e43b0      0xeb5 d:/00_program_installation/microchip/xc32/v2.10/bin/bin/../../lib/gcc/pic32c/6.2.1/../../../../pic32c/lib/v7e-m/fpv5/hard\libc.a(lib_a-closer.o)
 .debug_info    0x000e5265     0x1291 d:/00_program_installation/microchip/xc32/v2.10/bin/bin/../../lib/gcc/pic32c/6.2.1/../../../../pic32c/lib/v7e-m/fpv5/hard\libc.a(lib_a-fclose.o)
 .debug_info    0x000e64f6     0x13fc d:/00_program_installation/microchip/xc32/v2.10/bin/bin/../../lib/gcc/pic32c/6.2.1/../../../../pic32c/lib/v7e-m/fpv5/hard\libc.a(lib_a-fputwc.o)
 .debug_info    0x000e78f2     0x14ef d:/00_program_installation/microchip/xc32/v2.10/bin/bin/../../lib/gcc/pic32c/6.2.1/../../../../pic32c/lib/v7e-m/fpv5/hard\libc.a(lib_a-fvwrite.o)
 .debug_info    0x000e8de1      0xee6 d:/00_program_installation/microchip/xc32/v2.10/bin/bin/../../lib/gcc/pic32c/6.2.1/../../../../pic32c/lib/v7e-m/fpv5/hard\libc.a(lib_a-lseekr.o)
 .debug_info    0x000e9cc7     0x15a4 d:/00_program_installation/microchip/xc32/v2.10/bin/bin/../../lib/gcc/pic32c/6.2.1/../../../../pic32c/lib/v7e-m/fpv5/hard\libc.a(lib_a-makebuf.o)
 .debug_info    0x000eb26b     0x160b d:/00_program_installation/microchip/xc32/v2.10/bin/bin/../../lib/gcc/pic32c/6.2.1/../../../../pic32c/lib/v7e-m/fpv5/hard\libc.a(lib_a-memmove.o)
 .debug_info    0x000ec876      0xefd d:/00_program_installation/microchip/xc32/v2.10/bin/bin/../../lib/gcc/pic32c/6.2.1/../../../../pic32c/lib/v7e-m/fpv5/hard\libc.a(lib_a-readr.o)
 .debug_info    0x000ed773     0x14db d:/00_program_installation/microchip/xc32/v2.10/bin/bin/../../lib/gcc/pic32c/6.2.1/../../../../pic32c/lib/v7e-m/fpv5/hard\libc.a(lib_a-reallocr.o)
 .debug_info    0x000eec4e     0x125c d:/00_program_installation/microchip/xc32/v2.10/bin/bin/../../lib/gcc/pic32c/6.2.1/../../../../pic32c/lib/v7e-m/fpv5/hard\libc.a(lib_a-wbuf.o)
 .debug_info    0x000efeaa     0x17ed d:/00_program_installation/microchip/xc32/v2.10/bin/bin/../../lib/gcc/pic32c/6.2.1/../../../../pic32c/lib/v7e-m/fpv5/hard\libc.a(lib_a-wcrtomb.o)
 .debug_info    0x000f1697     0x11aa d:/00_program_installation/microchip/xc32/v2.10/bin/bin/../../lib/gcc/pic32c/6.2.1/../../../../pic32c/lib/v7e-m/fpv5/hard\libc.a(lib_a-fstatr.o)
 .debug_info    0x000f2841      0xeba d:/00_program_installation/microchip/xc32/v2.10/bin/bin/../../lib/gcc/pic32c/6.2.1/../../../../pic32c/lib/v7e-m/fpv5/hard\libc.a(lib_a-isattyr.o)
 .debug_info    0x000f36fb      0x294 d:/00_program_installation/microchip/xc32/v2.10/bin/bin/../../lib/gcc/pic32c/6.2.1/../../../../pic32c/lib/v7e-m/fpv5/hard\libpic32c.a(close.o)
 .debug_info    0x000f398f      0x284 d:/00_program_installation/microchip/xc32/v2.10/bin/bin/../../lib/gcc/pic32c/6.2.1/../../../../pic32c/lib/v7e-m/fpv5/hard\libpic32c.a(fstat.o)
 .debug_info    0x000f3c13      0x286 d:/00_program_installation/microchip/xc32/v2.10/bin/bin/../../lib/gcc/pic32c/6.2.1/../../../../pic32c/lib/v7e-m/fpv5/hard\libpic32c.a(isatty.o)
 .debug_info    0x000f3e99      0x284 d:/00_program_installation/microchip/xc32/v2.10/bin/bin/../../lib/gcc/pic32c/6.2.1/../../../../pic32c/lib/v7e-m/fpv5/hard\libpic32c.a(lseek.o)
 .debug_info    0x000f411d      0x283 d:/00_program_installation/microchip/xc32/v2.10/bin/bin/../../lib/gcc/pic32c/6.2.1/../../../../pic32c/lib/v7e-m/fpv5/hard\libpic32c.a(read.o)
 .debug_info    0x000f43a0      0x282 d:/00_program_installation/microchip/xc32/v2.10/bin/bin/../../lib/gcc/pic32c/6.2.1/../../../../pic32c/lib/v7e-m/fpv5/hard\libpic32c.a(sbrk.o)
 .debug_info    0x000f4622      0x285 d:/00_program_installation/microchip/xc32/v2.10/bin/bin/../../lib/gcc/pic32c/6.2.1/../../../../pic32c/lib/v7e-m/fpv5/hard\libpic32c.a(write.o)
 .debug_info    0x000f48a7      0x28b d:/00_program_installation/microchip/xc32/v2.10/bin/bin/../../lib/gcc/pic32c/6.2.1/../../../../pic32c/lib/v7e-m/fpv5/hard\libpic32c.a(_mon_getc.o)
 .debug_info    0x000f4b32      0x28b d:/00_program_installation/microchip/xc32/v2.10/bin/bin/../../lib/gcc/pic32c/6.2.1/../../../../pic32c/lib/v7e-m/fpv5/hard\libpic32c.a(_mon_putc.o)

.debug_abbrev   0x00000000     0xee64
 .debug_abbrev  0x00000000      0x270 build/default/production/_ext/1360937237/main.o
 .debug_abbrev  0x00000270      0x1ea build/default/production/_ext/1360937237/app.o
 .debug_abbrev  0x0000045a      0x341 build/default/production/_ext/1171490990/initialization.o
 .debug_abbrev  0x0000079b      0x276 build/default/production/_ext/1171490990/tasks.o
 .debug_abbrev  0x00000a11      0x247 build/default/production/_ext/1171490990/interrupts.o
 .debug_abbrev  0x00000c58      0x236 build/default/production/_ext/1171490990/exceptions.o
 .debug_abbrev  0x00000e8e       0xfa build/default/production/_ext/60165520/plib_clk.o
 .debug_abbrev  0x00000f88      0x144 build/default/production/_ext/60177924/plib_pio.o
 .debug_abbrev  0x000010cc      0x179 build/default/production/_ext/1865468468/plib_nvic.o
 .debug_abbrev  0x00001245       0xcd build/default/production/_ext/60175264/plib_mpu.o
 .debug_abbrev  0x00001312      0x366 build/default/production/_ext/1171490990/startup.o
 .debug_abbrev  0x00001678      0x1f1 build/default/production/_ext/1881668453/sys_int.o
 .debug_abbrev  0x00001869      0x587 build/default/production/_ext/444070925/drv_ethphy.o
 .debug_abbrev  0x00001df0      0x2d7 build/default/production/_ext/444070925/drv_extphy_smsc8740.o
 .debug_abbrev  0x000020c7      0x69a build/default/production/_ext/438849557/drv_miim.o
 .debug_abbrev  0x00002761      0x624 build/default/production/_ext/1546807373/drv_gmac.o
 .debug_abbrev  0x00002d85      0x542 build/default/production/_ext/1546807373/drv_gmac_lib.o
 .debug_abbrev  0x000032c7      0x45e build/default/production/_ext/718466696/net_pres.o
 .debug_abbrev  0x00003725      0x50d build/default/production/_ext/101884895/sys_time.o
 .debug_abbrev  0x00003c32      0x228 build/default/production/_ext/829342655/plib_tc0.o
 .debug_abbrev  0x00003e5a      0x543 build/default/production/_ext/1033058136/arp.o
 .debug_abbrev  0x0000439d      0x5ad build/default/production/_ext/1033058136/berkeley_api.o
 .debug_abbrev  0x0000494a      0x5b0 build/default/production/_ext/1033058136/dhcp.o
 .debug_abbrev  0x00004efa      0x5e4 build/default/production/_ext/1033058136/dns.o
 .debug_abbrev  0x000054de      0x530 build/default/production/_ext/1033058136/ipv4.o
 .debug_abbrev  0x00005a0e      0x299 build/default/production/_ext/1033058136/tcpip_heap_alloc.o
 .debug_abbrev  0x00005ca7      0x48f build/default/production/_ext/1033058136/tcpip_heap_internal.o
 .debug_abbrev  0x00006136      0x243 build/default/production/_ext/1033058136/helpers.o
 .debug_abbrev  0x00006379      0x1d0 build/default/production/_ext/1033058136/hash_fnv.o
 .debug_abbrev  0x00006549      0x34c build/default/production/_ext/1033058136/oahash.o
 .debug_abbrev  0x00006895      0x580 build/default/production/_ext/1033058136/tcpip_helpers.o
 .debug_abbrev  0x00006e15      0x67e build/default/production/_ext/1033058136/tcpip_manager.o
 .debug_abbrev  0x00007493      0x2eb build/default/production/_ext/1033058136/tcpip_notify.o
 .debug_abbrev  0x0000777e      0x47d build/default/production/_ext/1033058136/tcpip_packet.o
 .debug_abbrev  0x00007bfb      0x128 build/default/production/_ext/753841488/sys_time_h2_adapter.o
 .debug_abbrev  0x00007d23      0x62d build/default/production/_ext/1033058136/tcp.o
 .debug_abbrev  0x00008350      0x5dc build/default/production/_ext/1033058136/udp.o
 .debug_abbrev  0x0000892c       0x2a d:/00_program_installation/microchip/xc32/v2.10/bin/bin/../../lib/gcc/pic32c/6.2.1/../../../../pic32c/lib/v7e-m/fpv5/hard\libpic32c.a(data_init.o)
 .debug_abbrev  0x00008956       0x14 d:/00_program_installation/microchip/xc32/v2.10/bin/bin/../../lib/gcc/pic32c/6.2.1/v7e-m/fpv5/hard\libgcc.a(_aeabi_uldivmod.o)
 .debug_abbrev  0x0000896a      0x201 d:/00_program_installation/microchip/xc32/v2.10/bin/bin/../../lib/gcc/pic32c/6.2.1/v7e-m/fpv5/hard\libgcc.a(_udivmoddi4.o)
 .debug_abbrev  0x00008b6b       0x14 d:/00_program_installation/microchip/xc32/v2.10/bin/bin/../../lib/gcc/pic32c/6.2.1/v7e-m/fpv5/hard\libgcc.a(_dvmd_tls.o)
 .debug_abbrev  0x00008b7f      0x1cc d:/00_program_installation/microchip/xc32/v2.10/bin/bin/../../lib/gcc/pic32c/6.2.1/../../../../pic32c/lib/v7e-m/fpv5/hard\libc.a(lib_a-calloc.o)
 .debug_abbrev  0x00008d4b      0x203 d:/00_program_installation/microchip/xc32/v2.10/bin/bin/../../lib/gcc/pic32c/6.2.1/../../../../pic32c/lib/v7e-m/fpv5/hard\libc.a(lib_a-callocr.o)
 .debug_abbrev  0x00008f4e      0x194 d:/00_program_installation/microchip/xc32/v2.10/bin/bin/../../lib/gcc/pic32c/6.2.1/../../../../pic32c/lib/v7e-m/fpv5/hard\libc.a(lib_a-errno.o)
 .debug_abbrev  0x000090e2      0x176 d:/00_program_installation/microchip/xc32/v2.10/bin/bin/../../lib/gcc/pic32c/6.2.1/../../../../pic32c/lib/v7e-m/fpv5/hard\libc.a(lib_a-impure.o)
 .debug_abbrev  0x00009258       0xa3 d:/00_program_installation/microchip/xc32/v2.10/bin/bin/../../lib/gcc/pic32c/6.2.1/../../../../pic32c/lib/v7e-m/fpv5/hard\libc.a(lib_a-init.o)
 .debug_abbrev  0x000092fb      0x299 d:/00_program_installation/microchip/xc32/v2.10/bin/bin/../../lib/gcc/pic32c/6.2.1/../../../../pic32c/lib/v7e-m/fpv5/hard\libc.a(lib_a-locale.o)
 .debug_abbrev  0x00009594      0x1f8 d:/00_program_installation/microchip/xc32/v2.10/bin/bin/../../lib/gcc/pic32c/6.2.1/../../../../pic32c/lib/v7e-m/fpv5/hard\libc.a(lib_a-malloc.o)
 .debug_abbrev  0x0000978c      0x2ad d:/00_program_installation/microchip/xc32/v2.10/bin/bin/../../lib/gcc/pic32c/6.2.1/../../../../pic32c/lib/v7e-m/fpv5/hard\libc.a(lib_a-mallocr.o)
 .debug_abbrev  0x00009a39      0x203 d:/00_program_installation/microchip/xc32/v2.10/bin/bin/../../lib/gcc/pic32c/6.2.1/../../../../pic32c/lib/v7e-m/fpv5/hard\libc.a(lib_a-mbtowc_r.o)
 .debug_abbrev  0x00009c3c      0x1a3 d:/00_program_installation/microchip/xc32/v2.10/bin/bin/../../lib/gcc/pic32c/6.2.1/../../../../pic32c/lib/v7e-m/fpv5/hard\libc.a(lib_a-memcmp.o)
 .debug_abbrev  0x00009ddf       0x14 d:/00_program_installation/microchip/xc32/v2.10/bin/bin/../../lib/gcc/pic32c/6.2.1/../../../../pic32c/lib/v7e-m/fpv5/hard\libc.a(lib_a-memcpy.o)
 .debug_abbrev  0x00009df3      0x1b7 d:/00_program_installation/microchip/xc32/v2.10/bin/bin/../../lib/gcc/pic32c/6.2.1/../../../../pic32c/lib/v7e-m/fpv5/hard\libc.a(lib_a-memset.o)
 .debug_abbrev  0x00009faa      0x1b9 d:/00_program_installation/microchip/xc32/v2.10/bin/bin/../../lib/gcc/pic32c/6.2.1/../../../../pic32c/lib/v7e-m/fpv5/hard\libc.a(lib_a-mlock.o)
 .debug_abbrev  0x0000a163      0x1d6 d:/00_program_installation/microchip/xc32/v2.10/bin/bin/../../lib/gcc/pic32c/6.2.1/../../../../pic32c/lib/v7e-m/fpv5/hard\libc.a(lib_a-rand.o)
 .debug_abbrev  0x0000a339      0x1ed d:/00_program_installation/microchip/xc32/v2.10/bin/bin/../../lib/gcc/pic32c/6.2.1/../../../../pic32c/lib/v7e-m/fpv5/hard\libc.a(lib_a-sbrkr.o)
 .debug_abbrev  0x0000a526       0x14 d:/00_program_installation/microchip/xc32/v2.10/bin/bin/../../lib/gcc/pic32c/6.2.1/../../../../pic32c/lib/v7e-m/fpv5/hard\libc.a(lib_a-strcmp.o)
 .debug_abbrev  0x0000a53a       0x14 d:/00_program_installation/microchip/xc32/v2.10/bin/bin/../../lib/gcc/pic32c/6.2.1/../../../../pic32c/lib/v7e-m/fpv5/hard\libc.a(lib_a-strlen.o)
 .debug_abbrev  0x0000a54e      0x1ad d:/00_program_installation/microchip/xc32/v2.10/bin/bin/../../lib/gcc/pic32c/6.2.1/../../../../pic32c/lib/v7e-m/fpv5/hard\libc.a(lib_a-strncpy.o)
 .debug_abbrev  0x0000a6fb      0x21f d:/00_program_installation/microchip/xc32/v2.10/bin/bin/../../lib/gcc/pic32c/6.2.1/../../../../pic32c/lib/v7e-m/fpv5/hard\libc.a(lib_a-wctomb_r.o)
 .debug_abbrev  0x0000a91a      0x1ea d:/00_program_installation/microchip/xc32/v2.10/bin/bin/../../lib/gcc/pic32c/6.2.1/../../../../pic32c/lib/v7e-m/fpv5/hard\libc.a(snprintf.cdnopsuxX.o)
 .debug_abbrev  0x0000ab04      0x2ef d:/00_program_installation/microchip/xc32/v2.10/bin/bin/../../lib/gcc/pic32c/6.2.1/../../../../pic32c/lib/v7e-m/fpv5/hard\libc.a(vfprintf.cdnopsuxX.o)
 .debug_abbrev  0x0000adf3      0x203 d:/00_program_installation/microchip/xc32/v2.10/bin/bin/../../lib/gcc/pic32c/6.2.1/../../../../pic32c/lib/v7e-m/fpv5/hard\libc.a(vsnprintf.cdnopsuxX.o)
 .debug_abbrev  0x0000aff6      0x242 d:/00_program_installation/microchip/xc32/v2.10/bin/bin/../../lib/gcc/pic32c/6.2.1/../../../../pic32c/lib/v7e-m/fpv5/hard\libc.a(lib_a-__call_atexit.o)
 .debug_abbrev  0x0000b238      0x1e6 d:/00_program_installation/microchip/xc32/v2.10/bin/bin/../../lib/gcc/pic32c/6.2.1/../../../../pic32c/lib/v7e-m/fpv5/hard\libc.a(lib_a-atexit.o)
 .debug_abbrev  0x0000b41e      0x176 d:/00_program_installation/microchip/xc32/v2.10/bin/bin/../../lib/gcc/pic32c/6.2.1/../../../../pic32c/lib/v7e-m/fpv5/hard\libc.a(lib_a-ctype_.o)
 .debug_abbrev  0x0000b594      0x2d2 d:/00_program_installation/microchip/xc32/v2.10/bin/bin/../../lib/gcc/pic32c/6.2.1/../../../../pic32c/lib/v7e-m/fpv5/hard\libc.a(lib_a-fflush.o)
 .debug_abbrev  0x0000b866      0x3a1 d:/00_program_installation/microchip/xc32/v2.10/bin/bin/../../lib/gcc/pic32c/6.2.1/../../../../pic32c/lib/v7e-m/fpv5/hard\libc.a(lib_a-findfp.o)
 .debug_abbrev  0x0000bc07       0xa6 d:/00_program_installation/microchip/xc32/v2.10/bin/bin/../../lib/gcc/pic32c/6.2.1/../../../../pic32c/lib/v7e-m/fpv5/hard\libc.a(lib_a-fini.o)
 .debug_abbrev  0x0000bcad      0x24f d:/00_program_installation/microchip/xc32/v2.10/bin/bin/../../lib/gcc/pic32c/6.2.1/../../../../pic32c/lib/v7e-m/fpv5/hard\libc.a(lib_a-freer.o)
 .debug_abbrev  0x0000befc      0x1e3 d:/00_program_installation/microchip/xc32/v2.10/bin/bin/../../lib/gcc/pic32c/6.2.1/../../../../pic32c/lib/v7e-m/fpv5/hard\libc.a(lib_a-fwalk.o)
 .debug_abbrev  0x0000c0df       0x14 d:/00_program_installation/microchip/xc32/v2.10/bin/bin/../../lib/gcc/pic32c/6.2.1/../../../../pic32c/lib/v7e-m/fpv5/hard\libc.a(lib_a-memchr.o)
 .debug_abbrev  0x0000c0f3      0x23f d:/00_program_installation/microchip/xc32/v2.10/bin/bin/../../lib/gcc/pic32c/6.2.1/../../../../pic32c/lib/v7e-m/fpv5/hard\libc.a(lib_a-reent.o)
 .debug_abbrev  0x0000c332      0x284 d:/00_program_installation/microchip/xc32/v2.10/bin/bin/../../lib/gcc/pic32c/6.2.1/../../../../pic32c/lib/v7e-m/fpv5/hard\libc.a(lib_a-stdio.o)
 .debug_abbrev  0x0000c5b6      0x3a2 d:/00_program_installation/microchip/xc32/v2.10/bin/bin/../../lib/gcc/pic32c/6.2.1/../../../../pic32c/lib/v7e-m/fpv5/hard\libc.a(lib_a-vfiprintf.o)
 .debug_abbrev  0x0000c958      0x1fc d:/00_program_installation/microchip/xc32/v2.10/bin/bin/../../lib/gcc/pic32c/6.2.1/../../../../pic32c/lib/v7e-m/fpv5/hard\libc.a(lib_a-writer.o)
 .debug_abbrev  0x0000cb54      0x23c d:/00_program_installation/microchip/xc32/v2.10/bin/bin/../../lib/gcc/pic32c/6.2.1/../../../../pic32c/lib/v7e-m/fpv5/hard\libc.a(lib_a-wsetup.o)
 .debug_abbrev  0x0000cd90      0x1f2 d:/00_program_installation/microchip/xc32/v2.10/bin/bin/../../lib/gcc/pic32c/6.2.1/../../../../pic32c/lib/v7e-m/fpv5/hard\libc.a(lib_a-__atexit.o)
 .debug_abbrev  0x0000cf82      0x1f7 d:/00_program_installation/microchip/xc32/v2.10/bin/bin/../../lib/gcc/pic32c/6.2.1/../../../../pic32c/lib/v7e-m/fpv5/hard\libc.a(lib_a-closer.o)
 .debug_abbrev  0x0000d179      0x2b9 d:/00_program_installation/microchip/xc32/v2.10/bin/bin/../../lib/gcc/pic32c/6.2.1/../../../../pic32c/lib/v7e-m/fpv5/hard\libc.a(lib_a-fclose.o)
 .debug_abbrev  0x0000d432      0x309 d:/00_program_installation/microchip/xc32/v2.10/bin/bin/../../lib/gcc/pic32c/6.2.1/../../../../pic32c/lib/v7e-m/fpv5/hard\libc.a(lib_a-fputwc.o)
 .debug_abbrev  0x0000d73b      0x263 d:/00_program_installation/microchip/xc32/v2.10/bin/bin/../../lib/gcc/pic32c/6.2.1/../../../../pic32c/lib/v7e-m/fpv5/hard\libc.a(lib_a-fvwrite.o)
 .debug_abbrev  0x0000d99e      0x1f7 d:/00_program_installation/microchip/xc32/v2.10/bin/bin/../../lib/gcc/pic32c/6.2.1/../../../../pic32c/lib/v7e-m/fpv5/hard\libc.a(lib_a-lseekr.o)
 .debug_abbrev  0x0000db95      0x2b6 d:/00_program_installation/microchip/xc32/v2.10/bin/bin/../../lib/gcc/pic32c/6.2.1/../../../../pic32c/lib/v7e-m/fpv5/hard\libc.a(lib_a-makebuf.o)
 .debug_abbrev  0x0000de4b      0x1bc d:/00_program_installation/microchip/xc32/v2.10/bin/bin/../../lib/gcc/pic32c/6.2.1/../../../../pic32c/lib/v7e-m/fpv5/hard\libc.a(lib_a-memmove.o)
 .debug_abbrev  0x0000e007      0x1f7 d:/00_program_installation/microchip/xc32/v2.10/bin/bin/../../lib/gcc/pic32c/6.2.1/../../../../pic32c/lib/v7e-m/fpv5/hard\libc.a(lib_a-readr.o)
 .debug_abbrev  0x0000e1fe      0x262 d:/00_program_installation/microchip/xc32/v2.10/bin/bin/../../lib/gcc/pic32c/6.2.1/../../../../pic32c/lib/v7e-m/fpv5/hard\libc.a(lib_a-reallocr.o)
 .debug_abbrev  0x0000e460      0x266 d:/00_program_installation/microchip/xc32/v2.10/bin/bin/../../lib/gcc/pic32c/6.2.1/../../../../pic32c/lib/v7e-m/fpv5/hard\libc.a(lib_a-wbuf.o)
 .debug_abbrev  0x0000e6c6      0x220 d:/00_program_installation/microchip/xc32/v2.10/bin/bin/../../lib/gcc/pic32c/6.2.1/../../../../pic32c/lib/v7e-m/fpv5/hard\libc.a(lib_a-wcrtomb.o)
 .debug_abbrev  0x0000e8e6      0x1f7 d:/00_program_installation/microchip/xc32/v2.10/bin/bin/../../lib/gcc/pic32c/6.2.1/../../../../pic32c/lib/v7e-m/fpv5/hard\libc.a(lib_a-fstatr.o)
 .debug_abbrev  0x0000eadd      0x1f7 d:/00_program_installation/microchip/xc32/v2.10/bin/bin/../../lib/gcc/pic32c/6.2.1/../../../../pic32c/lib/v7e-m/fpv5/hard\libc.a(lib_a-isattyr.o)
 .debug_abbrev  0x0000ecd4       0x40 d:/00_program_installation/microchip/xc32/v2.10/bin/bin/../../lib/gcc/pic32c/6.2.1/../../../../pic32c/lib/v7e-m/fpv5/hard\libpic32c.a(close.o)
 .debug_abbrev  0x0000ed14       0x2a d:/00_program_installation/microchip/xc32/v2.10/bin/bin/../../lib/gcc/pic32c/6.2.1/../../../../pic32c/lib/v7e-m/fpv5/hard\libpic32c.a(fstat.o)
 .debug_abbrev  0x0000ed3e       0x2a d:/00_program_installation/microchip/xc32/v2.10/bin/bin/../../lib/gcc/pic32c/6.2.1/../../../../pic32c/lib/v7e-m/fpv5/hard\libpic32c.a(isatty.o)
 .debug_abbrev  0x0000ed68       0x2a d:/00_program_installation/microchip/xc32/v2.10/bin/bin/../../lib/gcc/pic32c/6.2.1/../../../../pic32c/lib/v7e-m/fpv5/hard\libpic32c.a(lseek.o)
 .debug_abbrev  0x0000ed92       0x2a d:/00_program_installation/microchip/xc32/v2.10/bin/bin/../../lib/gcc/pic32c/6.2.1/../../../../pic32c/lib/v7e-m/fpv5/hard\libpic32c.a(read.o)
 .debug_abbrev  0x0000edbc       0x2a d:/00_program_installation/microchip/xc32/v2.10/bin/bin/../../lib/gcc/pic32c/6.2.1/../../../../pic32c/lib/v7e-m/fpv5/hard\libpic32c.a(sbrk.o)
 .debug_abbrev  0x0000ede6       0x2a d:/00_program_installation/microchip/xc32/v2.10/bin/bin/../../lib/gcc/pic32c/6.2.1/../../../../pic32c/lib/v7e-m/fpv5/hard\libpic32c.a(write.o)
 .debug_abbrev  0x0000ee10       0x2a d:/00_program_installation/microchip/xc32/v2.10/bin/bin/../../lib/gcc/pic32c/6.2.1/../../../../pic32c/lib/v7e-m/fpv5/hard\libpic32c.a(_mon_getc.o)
 .debug_abbrev  0x0000ee3a       0x2a d:/00_program_installation/microchip/xc32/v2.10/bin/bin/../../lib/gcc/pic32c/6.2.1/../../../../pic32c/lib/v7e-m/fpv5/hard\libpic32c.a(_mon_putc.o)

.debug_loc      0x00000000    0x3a442
 .debug_loc     0x00000000       0x20 build/default/production/_ext/1360937237/main.o
 .debug_loc     0x00000020       0x14 build/default/production/_ext/1360937237/app.o
 .debug_loc     0x00000034       0x79 build/default/production/_ext/1171490990/initialization.o
 .debug_loc     0x000000ad       0x20 build/default/production/_ext/1171490990/tasks.o
 .debug_loc     0x000000cd       0x84 build/default/production/_ext/60177924/plib_pio.o
 .debug_loc     0x00000151       0xb7 build/default/production/_ext/1865468468/plib_nvic.o
 .debug_loc     0x00000208       0x6d build/default/production/_ext/1171490990/startup.o
 .debug_loc     0x00000275       0xaa build/default/production/_ext/1881668453/sys_int.o
 .debug_loc     0x0000031f     0x38b6 build/default/production/_ext/444070925/drv_ethphy.o
 .debug_loc     0x00003bd5      0x29b build/default/production/_ext/444070925/drv_extphy_smsc8740.o
 .debug_loc     0x00003e70     0x24c2 build/default/production/_ext/438849557/drv_miim.o
 .debug_loc     0x00006332     0x1db8 build/default/production/_ext/1546807373/drv_gmac.o
 .debug_loc     0x000080ea     0x1847 build/default/production/_ext/1546807373/drv_gmac_lib.o
 .debug_loc     0x00009931     0x1fb6 build/default/production/_ext/718466696/net_pres.o
 .debug_loc     0x0000b8e7     0x1115 build/default/production/_ext/101884895/sys_time.o
 .debug_loc     0x0000c9fc       0x8e build/default/production/_ext/829342655/plib_tc0.o
 .debug_loc     0x0000ca8a     0x2a93 build/default/production/_ext/1033058136/arp.o
 .debug_loc     0x0000f51d     0x3326 build/default/production/_ext/1033058136/berkeley_api.o
 .debug_loc     0x00012843     0x2d25 build/default/production/_ext/1033058136/dhcp.o
 .debug_loc     0x00015568     0x2d55 build/default/production/_ext/1033058136/dns.o
 .debug_loc     0x000182bd     0x1edc build/default/production/_ext/1033058136/ipv4.o
 .debug_loc     0x0001a199      0x1fe build/default/production/_ext/1033058136/tcpip_heap_alloc.o
 .debug_loc     0x0001a397      0xe5c build/default/production/_ext/1033058136/tcpip_heap_internal.o
 .debug_loc     0x0001b1f3      0x3af build/default/production/_ext/1033058136/helpers.o
 .debug_loc     0x0001b5a2      0x278 build/default/production/_ext/1033058136/hash_fnv.o
 .debug_loc     0x0001b81a      0x3ce build/default/production/_ext/1033058136/oahash.o
 .debug_loc     0x0001bbe8     0x3b7a build/default/production/_ext/1033058136/tcpip_helpers.o
 .debug_loc     0x0001f762     0x5656 build/default/production/_ext/1033058136/tcpip_manager.o
 .debug_loc     0x00024db8      0x2dc build/default/production/_ext/1033058136/tcpip_notify.o
 .debug_loc     0x00025094      0xa00 build/default/production/_ext/1033058136/tcpip_packet.o
 .debug_loc     0x00025a94       0xde build/default/production/_ext/753841488/sys_time_h2_adapter.o
 .debug_loc     0x00025b72     0x651c build/default/production/_ext/1033058136/tcp.o
 .debug_loc     0x0002c08e     0x417e build/default/production/_ext/1033058136/udp.o
 .debug_loc     0x0003020c       0x14 d:/00_program_installation/microchip/xc32/v2.10/bin/bin/../../lib/gcc/pic32c/6.2.1/../../../../pic32c/lib/v7e-m/fpv5/hard\libpic32c.a(data_init.o)
 .debug_loc     0x00030220      0xda6 d:/00_program_installation/microchip/xc32/v2.10/bin/bin/../../lib/gcc/pic32c/6.2.1/v7e-m/fpv5/hard\libgcc.a(_udivmoddi4.o)
 .debug_loc     0x00030fc6       0x58 d:/00_program_installation/microchip/xc32/v2.10/bin/bin/../../lib/gcc/pic32c/6.2.1/../../../../pic32c/lib/v7e-m/fpv5/hard\libc.a(lib_a-calloc.o)
 .debug_loc     0x0003101e      0x2b1 d:/00_program_installation/microchip/xc32/v2.10/bin/bin/../../lib/gcc/pic32c/6.2.1/../../../../pic32c/lib/v7e-m/fpv5/hard\libc.a(lib_a-callocr.o)
 .debug_loc     0x000312cf       0xce d:/00_program_installation/microchip/xc32/v2.10/bin/bin/../../lib/gcc/pic32c/6.2.1/../../../../pic32c/lib/v7e-m/fpv5/hard\libc.a(lib_a-init.o)
 .debug_loc     0x0003139d      0x173 d:/00_program_installation/microchip/xc32/v2.10/bin/bin/../../lib/gcc/pic32c/6.2.1/../../../../pic32c/lib/v7e-m/fpv5/hard\libc.a(lib_a-locale.o)
 .debug_loc     0x00031510       0x58 d:/00_program_installation/microchip/xc32/v2.10/bin/bin/../../lib/gcc/pic32c/6.2.1/../../../../pic32c/lib/v7e-m/fpv5/hard\libc.a(lib_a-malloc.o)
 .debug_loc     0x00031568      0xc66 d:/00_program_installation/microchip/xc32/v2.10/bin/bin/../../lib/gcc/pic32c/6.2.1/../../../../pic32c/lib/v7e-m/fpv5/hard\libc.a(lib_a-mallocr.o)
 .debug_loc     0x000321ce      0x259 d:/00_program_installation/microchip/xc32/v2.10/bin/bin/../../lib/gcc/pic32c/6.2.1/../../../../pic32c/lib/v7e-m/fpv5/hard\libc.a(lib_a-mbtowc_r.o)
 .debug_loc     0x00032427      0x1da d:/00_program_installation/microchip/xc32/v2.10/bin/bin/../../lib/gcc/pic32c/6.2.1/../../../../pic32c/lib/v7e-m/fpv5/hard\libc.a(lib_a-memcmp.o)
 .debug_loc     0x00032601      0x1f5 d:/00_program_installation/microchip/xc32/v2.10/bin/bin/../../lib/gcc/pic32c/6.2.1/../../../../pic32c/lib/v7e-m/fpv5/hard\libc.a(lib_a-memset.o)
 .debug_loc     0x000327f6       0x4b d:/00_program_installation/microchip/xc32/v2.10/bin/bin/../../lib/gcc/pic32c/6.2.1/../../../../pic32c/lib/v7e-m/fpv5/hard\libc.a(lib_a-rand.o)
 .debug_loc     0x00032841       0x6d d:/00_program_installation/microchip/xc32/v2.10/bin/bin/../../lib/gcc/pic32c/6.2.1/../../../../pic32c/lib/v7e-m/fpv5/hard\libc.a(lib_a-sbrkr.o)
 .debug_loc     0x000328ae      0x175 d:/00_program_installation/microchip/xc32/v2.10/bin/bin/../../lib/gcc/pic32c/6.2.1/../../../../pic32c/lib/v7e-m/fpv5/hard\libc.a(lib_a-strncpy.o)
 .debug_loc     0x00032a23      0x124 d:/00_program_installation/microchip/xc32/v2.10/bin/bin/../../lib/gcc/pic32c/6.2.1/../../../../pic32c/lib/v7e-m/fpv5/hard\libc.a(lib_a-wctomb_r.o)
 .debug_loc     0x00032b47       0x9e d:/00_program_installation/microchip/xc32/v2.10/bin/bin/../../lib/gcc/pic32c/6.2.1/../../../../pic32c/lib/v7e-m/fpv5/hard\libc.a(snprintf.cdnopsuxX.o)
 .debug_loc     0x00032be5     0x1354 d:/00_program_installation/microchip/xc32/v2.10/bin/bin/../../lib/gcc/pic32c/6.2.1/../../../../pic32c/lib/v7e-m/fpv5/hard\libc.a(vfprintf.cdnopsuxX.o)
 .debug_loc     0x00033f39      0x166 d:/00_program_installation/microchip/xc32/v2.10/bin/bin/../../lib/gcc/pic32c/6.2.1/../../../../pic32c/lib/v7e-m/fpv5/hard\libc.a(vsnprintf.cdnopsuxX.o)
 .debug_loc     0x0003409f      0x1dd d:/00_program_installation/microchip/xc32/v2.10/bin/bin/../../lib/gcc/pic32c/6.2.1/../../../../pic32c/lib/v7e-m/fpv5/hard\libc.a(lib_a-__call_atexit.o)
 .debug_loc     0x0003427c       0x2c d:/00_program_installation/microchip/xc32/v2.10/bin/bin/../../lib/gcc/pic32c/6.2.1/../../../../pic32c/lib/v7e-m/fpv5/hard\libc.a(lib_a-atexit.o)
 .debug_loc     0x000342a8      0x327 d:/00_program_installation/microchip/xc32/v2.10/bin/bin/../../lib/gcc/pic32c/6.2.1/../../../../pic32c/lib/v7e-m/fpv5/hard\libc.a(lib_a-fflush.o)
 .debug_loc     0x000345cf      0x38a d:/00_program_installation/microchip/xc32/v2.10/bin/bin/../../lib/gcc/pic32c/6.2.1/../../../../pic32c/lib/v7e-m/fpv5/hard\libc.a(lib_a-findfp.o)
 .debug_loc     0x00034959       0x88 d:/00_program_installation/microchip/xc32/v2.10/bin/bin/../../lib/gcc/pic32c/6.2.1/../../../../pic32c/lib/v7e-m/fpv5/hard\libc.a(lib_a-fini.o)
 .debug_loc     0x000349e1      0x5dd d:/00_program_installation/microchip/xc32/v2.10/bin/bin/../../lib/gcc/pic32c/6.2.1/../../../../pic32c/lib/v7e-m/fpv5/hard\libc.a(lib_a-freer.o)
 .debug_loc     0x00034fbe      0x247 d:/00_program_installation/microchip/xc32/v2.10/bin/bin/../../lib/gcc/pic32c/6.2.1/../../../../pic32c/lib/v7e-m/fpv5/hard\libc.a(lib_a-fwalk.o)
 .debug_loc     0x00035205      0x175 d:/00_program_installation/microchip/xc32/v2.10/bin/bin/../../lib/gcc/pic32c/6.2.1/../../../../pic32c/lib/v7e-m/fpv5/hard\libc.a(lib_a-reent.o)
 .debug_loc     0x0003537a      0x32b d:/00_program_installation/microchip/xc32/v2.10/bin/bin/../../lib/gcc/pic32c/6.2.1/../../../../pic32c/lib/v7e-m/fpv5/hard\libc.a(lib_a-stdio.o)
 .debug_loc     0x000356a5     0x22c8 d:/00_program_installation/microchip/xc32/v2.10/bin/bin/../../lib/gcc/pic32c/6.2.1/../../../../pic32c/lib/v7e-m/fpv5/hard\libc.a(lib_a-vfiprintf.o)
 .debug_loc     0x0003796d       0xd0 d:/00_program_installation/microchip/xc32/v2.10/bin/bin/../../lib/gcc/pic32c/6.2.1/../../../../pic32c/lib/v7e-m/fpv5/hard\libc.a(lib_a-writer.o)
 .debug_loc     0x00037a3d       0xc2 d:/00_program_installation/microchip/xc32/v2.10/bin/bin/../../lib/gcc/pic32c/6.2.1/../../../../pic32c/lib/v7e-m/fpv5/hard\libc.a(lib_a-wsetup.o)
 .debug_loc     0x00037aff      0x1b7 d:/00_program_installation/microchip/xc32/v2.10/bin/bin/../../lib/gcc/pic32c/6.2.1/../../../../pic32c/lib/v7e-m/fpv5/hard\libc.a(lib_a-__atexit.o)
 .debug_loc     0x00037cb6       0x6d d:/00_program_installation/microchip/xc32/v2.10/bin/bin/../../lib/gcc/pic32c/6.2.1/../../../../pic32c/lib/v7e-m/fpv5/hard\libc.a(lib_a-closer.o)
 .debug_loc     0x00037d23      0x18a d:/00_program_installation/microchip/xc32/v2.10/bin/bin/../../lib/gcc/pic32c/6.2.1/../../../../pic32c/lib/v7e-m/fpv5/hard\libc.a(lib_a-fclose.o)
 .debug_loc     0x00037ead      0x400 d:/00_program_installation/microchip/xc32/v2.10/bin/bin/../../lib/gcc/pic32c/6.2.1/../../../../pic32c/lib/v7e-m/fpv5/hard\libc.a(lib_a-fputwc.o)
 .debug_loc     0x000382ad      0x75c d:/00_program_installation/microchip/xc32/v2.10/bin/bin/../../lib/gcc/pic32c/6.2.1/../../../../pic32c/lib/v7e-m/fpv5/hard\libc.a(lib_a-fvwrite.o)
 .debug_loc     0x00038a09       0xd0 d:/00_program_installation/microchip/xc32/v2.10/bin/bin/../../lib/gcc/pic32c/6.2.1/../../../../pic32c/lib/v7e-m/fpv5/hard\libc.a(lib_a-lseekr.o)
 .debug_loc     0x00038ad9      0x1cf d:/00_program_installation/microchip/xc32/v2.10/bin/bin/../../lib/gcc/pic32c/6.2.1/../../../../pic32c/lib/v7e-m/fpv5/hard\libc.a(lib_a-makebuf.o)
 .debug_loc     0x00038ca8      0x289 d:/00_program_installation/microchip/xc32/v2.10/bin/bin/../../lib/gcc/pic32c/6.2.1/../../../../pic32c/lib/v7e-m/fpv5/hard\libc.a(lib_a-memmove.o)
 .debug_loc     0x00038f31       0xd0 d:/00_program_installation/microchip/xc32/v2.10/bin/bin/../../lib/gcc/pic32c/6.2.1/../../../../pic32c/lib/v7e-m/fpv5/hard\libc.a(lib_a-readr.o)
 .debug_loc     0x00039001      0xf24 d:/00_program_installation/microchip/xc32/v2.10/bin/bin/../../lib/gcc/pic32c/6.2.1/../../../../pic32c/lib/v7e-m/fpv5/hard\libc.a(lib_a-reallocr.o)
 .debug_loc     0x00039f25      0x14b d:/00_program_installation/microchip/xc32/v2.10/bin/bin/../../lib/gcc/pic32c/6.2.1/../../../../pic32c/lib/v7e-m/fpv5/hard\libc.a(lib_a-wbuf.o)
 .debug_loc     0x0003a070      0x299 d:/00_program_installation/microchip/xc32/v2.10/bin/bin/../../lib/gcc/pic32c/6.2.1/../../../../pic32c/lib/v7e-m/fpv5/hard\libc.a(lib_a-wcrtomb.o)
 .debug_loc     0x0003a309       0xa4 d:/00_program_installation/microchip/xc32/v2.10/bin/bin/../../lib/gcc/pic32c/6.2.1/../../../../pic32c/lib/v7e-m/fpv5/hard\libc.a(lib_a-fstatr.o)
 .debug_loc     0x0003a3ad       0x6d d:/00_program_installation/microchip/xc32/v2.10/bin/bin/../../lib/gcc/pic32c/6.2.1/../../../../pic32c/lib/v7e-m/fpv5/hard\libc.a(lib_a-isattyr.o)
 .debug_loc     0x0003a41a       0x14 d:/00_program_installation/microchip/xc32/v2.10/bin/bin/../../lib/gcc/pic32c/6.2.1/../../../../pic32c/lib/v7e-m/fpv5/hard\libpic32c.a(read.o)
 .debug_loc     0x0003a42e       0x14 d:/00_program_installation/microchip/xc32/v2.10/bin/bin/../../lib/gcc/pic32c/6.2.1/../../../../pic32c/lib/v7e-m/fpv5/hard\libpic32c.a(write.o)

.debug_aranges  0x00000000     0x25b8
 .debug_aranges
                0x00000000       0x20 build/default/production/_ext/1360937237/main.o
 .debug_aranges
                0x00000020       0x28 build/default/production/_ext/1360937237/app.o
 .debug_aranges
                0x00000048       0x28 build/default/production/_ext/1171490990/initialization.o
 .debug_aranges
                0x00000070       0x20 build/default/production/_ext/1171490990/tasks.o
 .debug_aranges
                0x00000090       0x20 build/default/production/_ext/1171490990/interrupts.o
 .debug_aranges
                0x000000b0       0x48 build/default/production/_ext/1171490990/exceptions.o
 .debug_aranges
                0x000000f8       0x20 build/default/production/_ext/60165520/plib_clk.o
 .debug_aranges
                0x00000118       0x70 build/default/production/_ext/60177924/plib_pio.o
 .debug_aranges
                0x00000188       0x20 build/default/production/_ext/1865468468/plib_nvic.o
 .debug_aranges
                0x000001a8       0x20 build/default/production/_ext/60175264/plib_mpu.o
 .debug_aranges
                0x000001c8       0x20 build/default/production/_ext/1171490990/startup.o
 .debug_aranges
                0x000001e8       0x38 build/default/production/_ext/1881668453/sys_int.o
 .debug_aranges
                0x00000220      0x278 build/default/production/_ext/444070925/drv_ethphy.o
 .debug_aranges
                0x00000498       0x30 build/default/production/_ext/444070925/drv_extphy_smsc8740.o
 .debug_aranges
                0x000004c8       0xe8 build/default/production/_ext/438849557/drv_miim.o
 .debug_aranges
                0x000005b0      0x280 build/default/production/_ext/1546807373/drv_gmac.o
 .debug_aranges
                0x00000830       0xa0 build/default/production/_ext/1546807373/drv_gmac_lib.o
 .debug_aranges
                0x000008d0      0x110 build/default/production/_ext/718466696/net_pres.o
 .debug_aranges
                0x000009e0      0x100 build/default/production/_ext/101884895/sys_time.o
 .debug_aranges
                0x00000ae0       0x60 build/default/production/_ext/829342655/plib_tc0.o
 .debug_aranges
                0x00000b40      0x110 build/default/production/_ext/1033058136/arp.o
 .debug_aranges
                0x00000c50      0x130 build/default/production/_ext/1033058136/berkeley_api.o
 .debug_aranges
                0x00000d80      0x188 build/default/production/_ext/1033058136/dhcp.o
 .debug_aranges
                0x00000f08      0x140 build/default/production/_ext/1033058136/dns.o
 .debug_aranges
                0x00001048       0xc0 build/default/production/_ext/1033058136/ipv4.o
 .debug_aranges
                0x00001108       0x48 build/default/production/_ext/1033058136/tcpip_heap_alloc.o
 .debug_aranges
                0x00001150       0x68 build/default/production/_ext/1033058136/tcpip_heap_internal.o
 .debug_aranges
                0x000011b8       0x40 build/default/production/_ext/1033058136/helpers.o
 .debug_aranges
                0x000011f8       0x28 build/default/production/_ext/1033058136/hash_fnv.o
 .debug_aranges
                0x00001220       0x50 build/default/production/_ext/1033058136/oahash.o
 .debug_aranges
                0x00001270      0x218 build/default/production/_ext/1033058136/tcpip_helpers.o
 .debug_aranges
                0x00001488      0x370 build/default/production/_ext/1033058136/tcpip_manager.o
 .debug_aranges
                0x000017f8       0x40 build/default/production/_ext/1033058136/tcpip_notify.o
 .debug_aranges
                0x00001838       0x78 build/default/production/_ext/1033058136/tcpip_packet.o
 .debug_aranges
                0x000018b0       0x28 build/default/production/_ext/753841488/sys_time_h2_adapter.o
 .debug_aranges
                0x000018d8      0x220 build/default/production/_ext/1033058136/tcp.o
 .debug_aranges
                0x00001af8      0x1b8 build/default/production/_ext/1033058136/udp.o
 .debug_aranges
                0x00001cb0       0x20 d:/00_program_installation/microchip/xc32/v2.10/bin/bin/../../lib/gcc/pic32c/6.2.1/../../../../pic32c/lib/v7e-m/fpv5/hard\libpic32c.a(data_init.o)
 .debug_aranges
                0x00001cd0       0x20 d:/00_program_installation/microchip/xc32/v2.10/bin/bin/../../lib/gcc/pic32c/6.2.1/v7e-m/fpv5/hard\libgcc.a(_aeabi_uldivmod.o)
 .debug_aranges
                0x00001cf0       0x20 d:/00_program_installation/microchip/xc32/v2.10/bin/bin/../../lib/gcc/pic32c/6.2.1/v7e-m/fpv5/hard\libgcc.a(_udivmoddi4.o)
 .debug_aranges
                0x00001d10       0x20 d:/00_program_installation/microchip/xc32/v2.10/bin/bin/../../lib/gcc/pic32c/6.2.1/v7e-m/fpv5/hard\libgcc.a(_dvmd_tls.o)
 .debug_aranges
                0x00001d30       0x20 d:/00_program_installation/microchip/xc32/v2.10/bin/bin/../../lib/gcc/pic32c/6.2.1/../../../../pic32c/lib/v7e-m/fpv5/hard\libc.a(lib_a-calloc.o)
 .debug_aranges
                0x00001d50       0x20 d:/00_program_installation/microchip/xc32/v2.10/bin/bin/../../lib/gcc/pic32c/6.2.1/../../../../pic32c/lib/v7e-m/fpv5/hard\libc.a(lib_a-callocr.o)
 .debug_aranges
                0x00001d70       0x20 d:/00_program_installation/microchip/xc32/v2.10/bin/bin/../../lib/gcc/pic32c/6.2.1/../../../../pic32c/lib/v7e-m/fpv5/hard\libc.a(lib_a-errno.o)
 .debug_aranges
                0x00001d90       0x18 d:/00_program_installation/microchip/xc32/v2.10/bin/bin/../../lib/gcc/pic32c/6.2.1/../../../../pic32c/lib/v7e-m/fpv5/hard\libc.a(lib_a-impure.o)
 .debug_aranges
                0x00001da8       0x20 d:/00_program_installation/microchip/xc32/v2.10/bin/bin/../../lib/gcc/pic32c/6.2.1/../../../../pic32c/lib/v7e-m/fpv5/hard\libc.a(lib_a-init.o)
 .debug_aranges
                0x00001dc8       0x40 d:/00_program_installation/microchip/xc32/v2.10/bin/bin/../../lib/gcc/pic32c/6.2.1/../../../../pic32c/lib/v7e-m/fpv5/hard\libc.a(lib_a-locale.o)
 .debug_aranges
                0x00001e08       0x28 d:/00_program_installation/microchip/xc32/v2.10/bin/bin/../../lib/gcc/pic32c/6.2.1/../../../../pic32c/lib/v7e-m/fpv5/hard\libc.a(lib_a-malloc.o)
 .debug_aranges
                0x00001e30       0x20 d:/00_program_installation/microchip/xc32/v2.10/bin/bin/../../lib/gcc/pic32c/6.2.1/../../../../pic32c/lib/v7e-m/fpv5/hard\libc.a(lib_a-mallocr.o)
 .debug_aranges
                0x00001e50       0x28 d:/00_program_installation/microchip/xc32/v2.10/bin/bin/../../lib/gcc/pic32c/6.2.1/../../../../pic32c/lib/v7e-m/fpv5/hard\libc.a(lib_a-mbtowc_r.o)
 .debug_aranges
                0x00001e78       0x20 d:/00_program_installation/microchip/xc32/v2.10/bin/bin/../../lib/gcc/pic32c/6.2.1/../../../../pic32c/lib/v7e-m/fpv5/hard\libc.a(lib_a-memcmp.o)
 .debug_aranges
                0x00001e98       0x20 d:/00_program_installation/microchip/xc32/v2.10/bin/bin/../../lib/gcc/pic32c/6.2.1/../../../../pic32c/lib/v7e-m/fpv5/hard\libc.a(lib_a-memcpy.o)
 .debug_aranges
                0x00001eb8       0x20 d:/00_program_installation/microchip/xc32/v2.10/bin/bin/../../lib/gcc/pic32c/6.2.1/../../../../pic32c/lib/v7e-m/fpv5/hard\libc.a(lib_a-memset.o)
 .debug_aranges
                0x00001ed8       0x20 d:/00_program_installation/microchip/xc32/v2.10/bin/bin/../../lib/gcc/pic32c/6.2.1/../../../../pic32c/lib/v7e-m/fpv5/hard\libc.a(lib_a-mlock.o)
 .debug_aranges
                0x00001ef8       0x28 d:/00_program_installation/microchip/xc32/v2.10/bin/bin/../../lib/gcc/pic32c/6.2.1/../../../../pic32c/lib/v7e-m/fpv5/hard\libc.a(lib_a-rand.o)
 .debug_aranges
                0x00001f20       0x20 d:/00_program_installation/microchip/xc32/v2.10/bin/bin/../../lib/gcc/pic32c/6.2.1/../../../../pic32c/lib/v7e-m/fpv5/hard\libc.a(lib_a-sbrkr.o)
 .debug_aranges
                0x00001f40       0x20 d:/00_program_installation/microchip/xc32/v2.10/bin/bin/../../lib/gcc/pic32c/6.2.1/../../../../pic32c/lib/v7e-m/fpv5/hard\libc.a(lib_a-strcmp.o)
 .debug_aranges
                0x00001f60       0x20 d:/00_program_installation/microchip/xc32/v2.10/bin/bin/../../lib/gcc/pic32c/6.2.1/../../../../pic32c/lib/v7e-m/fpv5/hard\libc.a(lib_a-strlen.o)
 .debug_aranges
                0x00001f80       0x20 d:/00_program_installation/microchip/xc32/v2.10/bin/bin/../../lib/gcc/pic32c/6.2.1/../../../../pic32c/lib/v7e-m/fpv5/hard\libc.a(lib_a-strncpy.o)
 .debug_aranges
                0x00001fa0       0x28 d:/00_program_installation/microchip/xc32/v2.10/bin/bin/../../lib/gcc/pic32c/6.2.1/../../../../pic32c/lib/v7e-m/fpv5/hard\libc.a(lib_a-wctomb_r.o)
 .debug_aranges
                0x00001fc8       0x20 d:/00_program_installation/microchip/xc32/v2.10/bin/bin/../../lib/gcc/pic32c/6.2.1/../../../../pic32c/lib/v7e-m/fpv5/hard\libc.a(snprintf.cdnopsuxX.o)
 .debug_aranges
                0x00001fe8       0x30 d:/00_program_installation/microchip/xc32/v2.10/bin/bin/../../lib/gcc/pic32c/6.2.1/../../../../pic32c/lib/v7e-m/fpv5/hard\libc.a(vfprintf.cdnopsuxX.o)
 .debug_aranges
                0x00002018       0x20 d:/00_program_installation/microchip/xc32/v2.10/bin/bin/../../lib/gcc/pic32c/6.2.1/../../../../pic32c/lib/v7e-m/fpv5/hard\libc.a(vsnprintf.cdnopsuxX.o)
 .debug_aranges
                0x00002038       0x28 d:/00_program_installation/microchip/xc32/v2.10/bin/bin/../../lib/gcc/pic32c/6.2.1/../../../../pic32c/lib/v7e-m/fpv5/hard\libc.a(lib_a-__call_atexit.o)
 .debug_aranges
                0x00002060       0x20 d:/00_program_installation/microchip/xc32/v2.10/bin/bin/../../lib/gcc/pic32c/6.2.1/../../../../pic32c/lib/v7e-m/fpv5/hard\libc.a(lib_a-atexit.o)
 .debug_aranges
                0x00002080       0x18 d:/00_program_installation/microchip/xc32/v2.10/bin/bin/../../lib/gcc/pic32c/6.2.1/../../../../pic32c/lib/v7e-m/fpv5/hard\libc.a(lib_a-ctype_.o)
 .debug_aranges
                0x00002098       0x30 d:/00_program_installation/microchip/xc32/v2.10/bin/bin/../../lib/gcc/pic32c/6.2.1/../../../../pic32c/lib/v7e-m/fpv5/hard\libc.a(lib_a-fflush.o)
 .debug_aranges
                0x000020c8       0x68 d:/00_program_installation/microchip/xc32/v2.10/bin/bin/../../lib/gcc/pic32c/6.2.1/../../../../pic32c/lib/v7e-m/fpv5/hard\libc.a(lib_a-findfp.o)
 .debug_aranges
                0x00002130       0x20 d:/00_program_installation/microchip/xc32/v2.10/bin/bin/../../lib/gcc/pic32c/6.2.1/../../../../pic32c/lib/v7e-m/fpv5/hard\libc.a(lib_a-fini.o)
 .debug_aranges
                0x00002150       0x28 d:/00_program_installation/microchip/xc32/v2.10/bin/bin/../../lib/gcc/pic32c/6.2.1/../../../../pic32c/lib/v7e-m/fpv5/hard\libc.a(lib_a-freer.o)
 .debug_aranges
                0x00002178       0x28 d:/00_program_installation/microchip/xc32/v2.10/bin/bin/../../lib/gcc/pic32c/6.2.1/../../../../pic32c/lib/v7e-m/fpv5/hard\libc.a(lib_a-fwalk.o)
 .debug_aranges
                0x000021a0       0x20 d:/00_program_installation/microchip/xc32/v2.10/bin/bin/../../lib/gcc/pic32c/6.2.1/../../../../pic32c/lib/v7e-m/fpv5/hard\libc.a(lib_a-memchr.o)
 .debug_aranges
                0x000021c0       0x28 d:/00_program_installation/microchip/xc32/v2.10/bin/bin/../../lib/gcc/pic32c/6.2.1/../../../../pic32c/lib/v7e-m/fpv5/hard\libc.a(lib_a-reent.o)
 .debug_aranges
                0x000021e8       0x40 d:/00_program_installation/microchip/xc32/v2.10/bin/bin/../../lib/gcc/pic32c/6.2.1/../../../../pic32c/lib/v7e-m/fpv5/hard\libc.a(lib_a-stdio.o)
 .debug_aranges
                0x00002228       0x40 d:/00_program_installation/microchip/xc32/v2.10/bin/bin/../../lib/gcc/pic32c/6.2.1/../../../../pic32c/lib/v7e-m/fpv5/hard\libc.a(lib_a-vfiprintf.o)
 .debug_aranges
                0x00002268       0x20 d:/00_program_installation/microchip/xc32/v2.10/bin/bin/../../lib/gcc/pic32c/6.2.1/../../../../pic32c/lib/v7e-m/fpv5/hard\libc.a(lib_a-writer.o)
 .debug_aranges
                0x00002288       0x20 d:/00_program_installation/microchip/xc32/v2.10/bin/bin/../../lib/gcc/pic32c/6.2.1/../../../../pic32c/lib/v7e-m/fpv5/hard\libc.a(lib_a-wsetup.o)
 .debug_aranges
                0x000022a8       0x20 d:/00_program_installation/microchip/xc32/v2.10/bin/bin/../../lib/gcc/pic32c/6.2.1/../../../../pic32c/lib/v7e-m/fpv5/hard\libc.a(lib_a-__atexit.o)
 .debug_aranges
                0x000022c8       0x20 d:/00_program_installation/microchip/xc32/v2.10/bin/bin/../../lib/gcc/pic32c/6.2.1/../../../../pic32c/lib/v7e-m/fpv5/hard\libc.a(lib_a-closer.o)
 .debug_aranges
                0x000022e8       0x28 d:/00_program_installation/microchip/xc32/v2.10/bin/bin/../../lib/gcc/pic32c/6.2.1/../../../../pic32c/lib/v7e-m/fpv5/hard\libc.a(lib_a-fclose.o)
 .debug_aranges
                0x00002310       0x30 d:/00_program_installation/microchip/xc32/v2.10/bin/bin/../../lib/gcc/pic32c/6.2.1/../../../../pic32c/lib/v7e-m/fpv5/hard\libc.a(lib_a-fputwc.o)
 .debug_aranges
                0x00002340       0x20 d:/00_program_installation/microchip/xc32/v2.10/bin/bin/../../lib/gcc/pic32c/6.2.1/../../../../pic32c/lib/v7e-m/fpv5/hard\libc.a(lib_a-fvwrite.o)
 .debug_aranges
                0x00002360       0x20 d:/00_program_installation/microchip/xc32/v2.10/bin/bin/../../lib/gcc/pic32c/6.2.1/../../../../pic32c/lib/v7e-m/fpv5/hard\libc.a(lib_a-lseekr.o)
 .debug_aranges
                0x00002380       0x28 d:/00_program_installation/microchip/xc32/v2.10/bin/bin/../../lib/gcc/pic32c/6.2.1/../../../../pic32c/lib/v7e-m/fpv5/hard\libc.a(lib_a-makebuf.o)
 .debug_aranges
                0x000023a8       0x20 d:/00_program_installation/microchip/xc32/v2.10/bin/bin/../../lib/gcc/pic32c/6.2.1/../../../../pic32c/lib/v7e-m/fpv5/hard\libc.a(lib_a-memmove.o)
 .debug_aranges
                0x000023c8       0x20 d:/00_program_installation/microchip/xc32/v2.10/bin/bin/../../lib/gcc/pic32c/6.2.1/../../../../pic32c/lib/v7e-m/fpv5/hard\libc.a(lib_a-readr.o)
 .debug_aranges
                0x000023e8       0x20 d:/00_program_installation/microchip/xc32/v2.10/bin/bin/../../lib/gcc/pic32c/6.2.1/../../../../pic32c/lib/v7e-m/fpv5/hard\libc.a(lib_a-reallocr.o)
 .debug_aranges
                0x00002408       0x28 d:/00_program_installation/microchip/xc32/v2.10/bin/bin/../../lib/gcc/pic32c/6.2.1/../../../../pic32c/lib/v7e-m/fpv5/hard\libc.a(lib_a-wbuf.o)
 .debug_aranges
                0x00002430       0x28 d:/00_program_installation/microchip/xc32/v2.10/bin/bin/../../lib/gcc/pic32c/6.2.1/../../../../pic32c/lib/v7e-m/fpv5/hard\libc.a(lib_a-wcrtomb.o)
 .debug_aranges
                0x00002458       0x20 d:/00_program_installation/microchip/xc32/v2.10/bin/bin/../../lib/gcc/pic32c/6.2.1/../../../../pic32c/lib/v7e-m/fpv5/hard\libc.a(lib_a-fstatr.o)
 .debug_aranges
                0x00002478       0x20 d:/00_program_installation/microchip/xc32/v2.10/bin/bin/../../lib/gcc/pic32c/6.2.1/../../../../pic32c/lib/v7e-m/fpv5/hard\libc.a(lib_a-isattyr.o)
 .debug_aranges
                0x00002498       0x20 d:/00_program_installation/microchip/xc32/v2.10/bin/bin/../../lib/gcc/pic32c/6.2.1/../../../../pic32c/lib/v7e-m/fpv5/hard\libpic32c.a(close.o)
 .debug_aranges
                0x000024b8       0x20 d:/00_program_installation/microchip/xc32/v2.10/bin/bin/../../lib/gcc/pic32c/6.2.1/../../../../pic32c/lib/v7e-m/fpv5/hard\libpic32c.a(fstat.o)
 .debug_aranges
                0x000024d8       0x20 d:/00_program_installation/microchip/xc32/v2.10/bin/bin/../../lib/gcc/pic32c/6.2.1/../../../../pic32c/lib/v7e-m/fpv5/hard\libpic32c.a(isatty.o)
 .debug_aranges
                0x000024f8       0x20 d:/00_program_installation/microchip/xc32/v2.10/bin/bin/../../lib/gcc/pic32c/6.2.1/../../../../pic32c/lib/v7e-m/fpv5/hard\libpic32c.a(lseek.o)
 .debug_aranges
                0x00002518       0x20 d:/00_program_installation/microchip/xc32/v2.10/bin/bin/../../lib/gcc/pic32c/6.2.1/../../../../pic32c/lib/v7e-m/fpv5/hard\libpic32c.a(read.o)
 .debug_aranges
                0x00002538       0x20 d:/00_program_installation/microchip/xc32/v2.10/bin/bin/../../lib/gcc/pic32c/6.2.1/../../../../pic32c/lib/v7e-m/fpv5/hard\libpic32c.a(sbrk.o)
 .debug_aranges
                0x00002558       0x20 d:/00_program_installation/microchip/xc32/v2.10/bin/bin/../../lib/gcc/pic32c/6.2.1/../../../../pic32c/lib/v7e-m/fpv5/hard\libpic32c.a(write.o)
 .debug_aranges
                0x00002578       0x20 d:/00_program_installation/microchip/xc32/v2.10/bin/bin/../../lib/gcc/pic32c/6.2.1/../../../../pic32c/lib/v7e-m/fpv5/hard\libpic32c.a(_mon_getc.o)
 .debug_aranges
                0x00002598       0x20 d:/00_program_installation/microchip/xc32/v2.10/bin/bin/../../lib/gcc/pic32c/6.2.1/../../../../pic32c/lib/v7e-m/fpv5/hard\libpic32c.a(_mon_putc.o)

.debug_ranges   0x00000000     0x3f90
 .debug_ranges  0x00000000       0x10 build/default/production/_ext/1360937237/main.o
 .debug_ranges  0x00000010       0x18 build/default/production/_ext/1360937237/app.o
 .debug_ranges  0x00000028       0x18 build/default/production/_ext/1171490990/initialization.o
 .debug_ranges  0x00000040       0x10 build/default/production/_ext/1171490990/tasks.o
 .debug_ranges  0x00000050       0x10 build/default/production/_ext/1171490990/interrupts.o
 .debug_ranges  0x00000060       0x38 build/default/production/_ext/1171490990/exceptions.o
 .debug_ranges  0x00000098       0x10 build/default/production/_ext/60165520/plib_clk.o
 .debug_ranges  0x000000a8       0x60 build/default/production/_ext/60177924/plib_pio.o
 .debug_ranges  0x00000108       0x10 build/default/production/_ext/1865468468/plib_nvic.o
 .debug_ranges  0x00000118       0x10 build/default/production/_ext/60175264/plib_mpu.o
 .debug_ranges  0x00000128       0x10 build/default/production/_ext/1171490990/startup.o
 .debug_ranges  0x00000138       0x28 build/default/production/_ext/1881668453/sys_int.o
 .debug_ranges  0x00000160      0x2e0 build/default/production/_ext/444070925/drv_ethphy.o
 .debug_ranges  0x00000440       0x20 build/default/production/_ext/444070925/drv_extphy_smsc8740.o
 .debug_ranges  0x00000460      0x348 build/default/production/_ext/438849557/drv_miim.o
 .debug_ranges  0x000007a8      0x350 build/default/production/_ext/1546807373/drv_gmac.o
 .debug_ranges  0x00000af8      0x108 build/default/production/_ext/1546807373/drv_gmac_lib.o
 .debug_ranges  0x00000c00      0x280 build/default/production/_ext/718466696/net_pres.o
 .debug_ranges  0x00000e80      0x120 build/default/production/_ext/101884895/sys_time.o
 .debug_ranges  0x00000fa0       0x50 build/default/production/_ext/829342655/plib_tc0.o
 .debug_ranges  0x00000ff0      0x1c0 build/default/production/_ext/1033058136/arp.o
 .debug_ranges  0x000011b0      0x210 build/default/production/_ext/1033058136/berkeley_api.o
 .debug_ranges  0x000013c0      0x2f0 build/default/production/_ext/1033058136/dhcp.o
 .debug_ranges  0x000016b0      0x260 build/default/production/_ext/1033058136/dns.o
 .debug_ranges  0x00001910      0x200 build/default/production/_ext/1033058136/ipv4.o
 .debug_ranges  0x00001b10       0x38 build/default/production/_ext/1033058136/tcpip_heap_alloc.o
 .debug_ranges  0x00001b48       0xa0 build/default/production/_ext/1033058136/tcpip_heap_internal.o
 .debug_ranges  0x00001be8       0x30 build/default/production/_ext/1033058136/helpers.o
 .debug_ranges  0x00001c18       0x18 build/default/production/_ext/1033058136/hash_fnv.o
 .debug_ranges  0x00001c30       0x40 build/default/production/_ext/1033058136/oahash.o
 .debug_ranges  0x00001c70      0x498 build/default/production/_ext/1033058136/tcpip_helpers.o
 .debug_ranges  0x00002108      0x680 build/default/production/_ext/1033058136/tcpip_manager.o
 .debug_ranges  0x00002788       0x30 build/default/production/_ext/1033058136/tcpip_notify.o
 .debug_ranges  0x000027b8       0x80 build/default/production/_ext/1033058136/tcpip_packet.o
 .debug_ranges  0x00002838       0x18 build/default/production/_ext/753841488/sys_time_h2_adapter.o
 .debug_ranges  0x00002850      0x6b0 build/default/production/_ext/1033058136/tcp.o
 .debug_ranges  0x00002f00      0x4a0 build/default/production/_ext/1033058136/udp.o
 .debug_ranges  0x000033a0       0x10 d:/00_program_installation/microchip/xc32/v2.10/bin/bin/../../lib/gcc/pic32c/6.2.1/../../../../pic32c/lib/v7e-m/fpv5/hard\libpic32c.a(data_init.o)
 .debug_ranges  0x000033b0       0xd0 d:/00_program_installation/microchip/xc32/v2.10/bin/bin/../../lib/gcc/pic32c/6.2.1/v7e-m/fpv5/hard\libgcc.a(_udivmoddi4.o)
 .debug_ranges  0x00003480       0x10 d:/00_program_installation/microchip/xc32/v2.10/bin/bin/../../lib/gcc/pic32c/6.2.1/../../../../pic32c/lib/v7e-m/fpv5/hard\libc.a(lib_a-calloc.o)
 .debug_ranges  0x00003490       0x50 d:/00_program_installation/microchip/xc32/v2.10/bin/bin/../../lib/gcc/pic32c/6.2.1/../../../../pic32c/lib/v7e-m/fpv5/hard\libc.a(lib_a-callocr.o)
 .debug_ranges  0x000034e0       0x10 d:/00_program_installation/microchip/xc32/v2.10/bin/bin/../../lib/gcc/pic32c/6.2.1/../../../../pic32c/lib/v7e-m/fpv5/hard\libc.a(lib_a-errno.o)
 .debug_ranges  0x000034f0       0x10 d:/00_program_installation/microchip/xc32/v2.10/bin/bin/../../lib/gcc/pic32c/6.2.1/../../../../pic32c/lib/v7e-m/fpv5/hard\libc.a(lib_a-init.o)
 .debug_ranges  0x00003500       0x50 d:/00_program_installation/microchip/xc32/v2.10/bin/bin/../../lib/gcc/pic32c/6.2.1/../../../../pic32c/lib/v7e-m/fpv5/hard\libc.a(lib_a-locale.o)
 .debug_ranges  0x00003550       0x18 d:/00_program_installation/microchip/xc32/v2.10/bin/bin/../../lib/gcc/pic32c/6.2.1/../../../../pic32c/lib/v7e-m/fpv5/hard\libc.a(lib_a-malloc.o)
 .debug_ranges  0x00003568       0x40 d:/00_program_installation/microchip/xc32/v2.10/bin/bin/../../lib/gcc/pic32c/6.2.1/../../../../pic32c/lib/v7e-m/fpv5/hard\libc.a(lib_a-mallocr.o)
 .debug_ranges  0x000035a8       0x18 d:/00_program_installation/microchip/xc32/v2.10/bin/bin/../../lib/gcc/pic32c/6.2.1/../../../../pic32c/lib/v7e-m/fpv5/hard\libc.a(lib_a-mbtowc_r.o)
 .debug_ranges  0x000035c0       0x10 d:/00_program_installation/microchip/xc32/v2.10/bin/bin/../../lib/gcc/pic32c/6.2.1/../../../../pic32c/lib/v7e-m/fpv5/hard\libc.a(lib_a-memcmp.o)
 .debug_ranges  0x000035d0       0x10 d:/00_program_installation/microchip/xc32/v2.10/bin/bin/../../lib/gcc/pic32c/6.2.1/../../../../pic32c/lib/v7e-m/fpv5/hard\libc.a(lib_a-memset.o)
 .debug_ranges  0x000035e0       0x10 d:/00_program_installation/microchip/xc32/v2.10/bin/bin/../../lib/gcc/pic32c/6.2.1/../../../../pic32c/lib/v7e-m/fpv5/hard\libc.a(lib_a-mlock.o)
 .debug_ranges  0x000035f0       0x18 d:/00_program_installation/microchip/xc32/v2.10/bin/bin/../../lib/gcc/pic32c/6.2.1/../../../../pic32c/lib/v7e-m/fpv5/hard\libc.a(lib_a-rand.o)
 .debug_ranges  0x00003608       0x10 d:/00_program_installation/microchip/xc32/v2.10/bin/bin/../../lib/gcc/pic32c/6.2.1/../../../../pic32c/lib/v7e-m/fpv5/hard\libc.a(lib_a-sbrkr.o)
 .debug_ranges  0x00003618       0x10 d:/00_program_installation/microchip/xc32/v2.10/bin/bin/../../lib/gcc/pic32c/6.2.1/../../../../pic32c/lib/v7e-m/fpv5/hard\libc.a(lib_a-strncpy.o)
 .debug_ranges  0x00003628       0x18 d:/00_program_installation/microchip/xc32/v2.10/bin/bin/../../lib/gcc/pic32c/6.2.1/../../../../pic32c/lib/v7e-m/fpv5/hard\libc.a(lib_a-wctomb_r.o)
 .debug_ranges  0x00003640       0x10 d:/00_program_installation/microchip/xc32/v2.10/bin/bin/../../lib/gcc/pic32c/6.2.1/../../../../pic32c/lib/v7e-m/fpv5/hard\libc.a(snprintf.cdnopsuxX.o)
 .debug_ranges  0x00003650       0x68 d:/00_program_installation/microchip/xc32/v2.10/bin/bin/../../lib/gcc/pic32c/6.2.1/../../../../pic32c/lib/v7e-m/fpv5/hard\libc.a(vfprintf.cdnopsuxX.o)
 .debug_ranges  0x000036b8       0x10 d:/00_program_installation/microchip/xc32/v2.10/bin/bin/../../lib/gcc/pic32c/6.2.1/../../../../pic32c/lib/v7e-m/fpv5/hard\libc.a(vsnprintf.cdnopsuxX.o)
 .debug_ranges  0x000036c8       0x38 d:/00_program_installation/microchip/xc32/v2.10/bin/bin/../../lib/gcc/pic32c/6.2.1/../../../../pic32c/lib/v7e-m/fpv5/hard\libc.a(lib_a-__call_atexit.o)
 .debug_ranges  0x00003700       0x10 d:/00_program_installation/microchip/xc32/v2.10/bin/bin/../../lib/gcc/pic32c/6.2.1/../../../../pic32c/lib/v7e-m/fpv5/hard\libc.a(lib_a-atexit.o)
 .debug_ranges  0x00003710       0x80 d:/00_program_installation/microchip/xc32/v2.10/bin/bin/../../lib/gcc/pic32c/6.2.1/../../../../pic32c/lib/v7e-m/fpv5/hard\libc.a(lib_a-fflush.o)
 .debug_ranges  0x00003790       0xc8 d:/00_program_installation/microchip/xc32/v2.10/bin/bin/../../lib/gcc/pic32c/6.2.1/../../../../pic32c/lib/v7e-m/fpv5/hard\libc.a(lib_a-findfp.o)
 .debug_ranges  0x00003858       0x10 d:/00_program_installation/microchip/xc32/v2.10/bin/bin/../../lib/gcc/pic32c/6.2.1/../../../../pic32c/lib/v7e-m/fpv5/hard\libc.a(lib_a-fini.o)
 .debug_ranges  0x00003868       0x18 d:/00_program_installation/microchip/xc32/v2.10/bin/bin/../../lib/gcc/pic32c/6.2.1/../../../../pic32c/lib/v7e-m/fpv5/hard\libc.a(lib_a-freer.o)
 .debug_ranges  0x00003880       0x18 d:/00_program_installation/microchip/xc32/v2.10/bin/bin/../../lib/gcc/pic32c/6.2.1/../../../../pic32c/lib/v7e-m/fpv5/hard\libc.a(lib_a-fwalk.o)
 .debug_ranges  0x00003898       0x18 d:/00_program_installation/microchip/xc32/v2.10/bin/bin/../../lib/gcc/pic32c/6.2.1/../../../../pic32c/lib/v7e-m/fpv5/hard\libc.a(lib_a-reent.o)
 .debug_ranges  0x000038b0       0x30 d:/00_program_installation/microchip/xc32/v2.10/bin/bin/../../lib/gcc/pic32c/6.2.1/../../../../pic32c/lib/v7e-m/fpv5/hard\libc.a(lib_a-stdio.o)
 .debug_ranges  0x000038e0      0x210 d:/00_program_installation/microchip/xc32/v2.10/bin/bin/../../lib/gcc/pic32c/6.2.1/../../../../pic32c/lib/v7e-m/fpv5/hard\libc.a(lib_a-vfiprintf.o)
 .debug_ranges  0x00003af0       0x38 d:/00_program_installation/microchip/xc32/v2.10/bin/bin/../../lib/gcc/pic32c/6.2.1/../../../../pic32c/lib/v7e-m/fpv5/hard\libc.a(lib_a-writer.o)
 .debug_ranges  0x00003b28       0x30 d:/00_program_installation/microchip/xc32/v2.10/bin/bin/../../lib/gcc/pic32c/6.2.1/../../../../pic32c/lib/v7e-m/fpv5/hard\libc.a(lib_a-wsetup.o)
 .debug_ranges  0x00003b58       0x10 d:/00_program_installation/microchip/xc32/v2.10/bin/bin/../../lib/gcc/pic32c/6.2.1/../../../../pic32c/lib/v7e-m/fpv5/hard\libc.a(lib_a-__atexit.o)
 .debug_ranges  0x00003b68       0x30 d:/00_program_installation/microchip/xc32/v2.10/bin/bin/../../lib/gcc/pic32c/6.2.1/../../../../pic32c/lib/v7e-m/fpv5/hard\libc.a(lib_a-closer.o)
 .debug_ranges  0x00003b98       0x48 d:/00_program_installation/microchip/xc32/v2.10/bin/bin/../../lib/gcc/pic32c/6.2.1/../../../../pic32c/lib/v7e-m/fpv5/hard\libc.a(lib_a-fclose.o)
 .debug_ranges  0x00003be0       0x68 d:/00_program_installation/microchip/xc32/v2.10/bin/bin/../../lib/gcc/pic32c/6.2.1/../../../../pic32c/lib/v7e-m/fpv5/hard\libc.a(lib_a-fputwc.o)
 .debug_ranges  0x00003c48       0x30 d:/00_program_installation/microchip/xc32/v2.10/bin/bin/../../lib/gcc/pic32c/6.2.1/../../../../pic32c/lib/v7e-m/fpv5/hard\libc.a(lib_a-fvwrite.o)
 .debug_ranges  0x00003c78       0x38 d:/00_program_installation/microchip/xc32/v2.10/bin/bin/../../lib/gcc/pic32c/6.2.1/../../../../pic32c/lib/v7e-m/fpv5/hard\libc.a(lib_a-lseekr.o)
 .debug_ranges  0x00003cb0       0x30 d:/00_program_installation/microchip/xc32/v2.10/bin/bin/../../lib/gcc/pic32c/6.2.1/../../../../pic32c/lib/v7e-m/fpv5/hard\libc.a(lib_a-makebuf.o)
 .debug_ranges  0x00003ce0       0x10 d:/00_program_installation/microchip/xc32/v2.10/bin/bin/../../lib/gcc/pic32c/6.2.1/../../../../pic32c/lib/v7e-m/fpv5/hard\libc.a(lib_a-memmove.o)
 .debug_ranges  0x00003cf0       0x38 d:/00_program_installation/microchip/xc32/v2.10/bin/bin/../../lib/gcc/pic32c/6.2.1/../../../../pic32c/lib/v7e-m/fpv5/hard\libc.a(lib_a-readr.o)
 .debug_ranges  0x00003d28      0x118 d:/00_program_installation/microchip/xc32/v2.10/bin/bin/../../lib/gcc/pic32c/6.2.1/../../../../pic32c/lib/v7e-m/fpv5/hard\libc.a(lib_a-reallocr.o)
 .debug_ranges  0x00003e40       0x30 d:/00_program_installation/microchip/xc32/v2.10/bin/bin/../../lib/gcc/pic32c/6.2.1/../../../../pic32c/lib/v7e-m/fpv5/hard\libc.a(lib_a-wbuf.o)
 .debug_ranges  0x00003e70       0x30 d:/00_program_installation/microchip/xc32/v2.10/bin/bin/../../lib/gcc/pic32c/6.2.1/../../../../pic32c/lib/v7e-m/fpv5/hard\libc.a(lib_a-wcrtomb.o)
 .debug_ranges  0x00003ea0       0x30 d:/00_program_installation/microchip/xc32/v2.10/bin/bin/../../lib/gcc/pic32c/6.2.1/../../../../pic32c/lib/v7e-m/fpv5/hard\libc.a(lib_a-fstatr.o)
 .debug_ranges  0x00003ed0       0x30 d:/00_program_installation/microchip/xc32/v2.10/bin/bin/../../lib/gcc/pic32c/6.2.1/../../../../pic32c/lib/v7e-m/fpv5/hard\libc.a(lib_a-isattyr.o)
 .debug_ranges  0x00003f00       0x10 d:/00_program_installation/microchip/xc32/v2.10/bin/bin/../../lib/gcc/pic32c/6.2.1/../../../../pic32c/lib/v7e-m/fpv5/hard\libpic32c.a(close.o)
 .debug_ranges  0x00003f10       0x10 d:/00_program_installation/microchip/xc32/v2.10/bin/bin/../../lib/gcc/pic32c/6.2.1/../../../../pic32c/lib/v7e-m/fpv5/hard\libpic32c.a(fstat.o)
 .debug_ranges  0x00003f20       0x10 d:/00_program_installation/microchip/xc32/v2.10/bin/bin/../../lib/gcc/pic32c/6.2.1/../../../../pic32c/lib/v7e-m/fpv5/hard\libpic32c.a(isatty.o)
 .debug_ranges  0x00003f30       0x10 d:/00_program_installation/microchip/xc32/v2.10/bin/bin/../../lib/gcc/pic32c/6.2.1/../../../../pic32c/lib/v7e-m/fpv5/hard\libpic32c.a(lseek.o)
 .debug_ranges  0x00003f40       0x10 d:/00_program_installation/microchip/xc32/v2.10/bin/bin/../../lib/gcc/pic32c/6.2.1/../../../../pic32c/lib/v7e-m/fpv5/hard\libpic32c.a(read.o)
 .debug_ranges  0x00003f50       0x10 d:/00_program_installation/microchip/xc32/v2.10/bin/bin/../../lib/gcc/pic32c/6.2.1/../../../../pic32c/lib/v7e-m/fpv5/hard\libpic32c.a(sbrk.o)
 .debug_ranges  0x00003f60       0x10 d:/00_program_installation/microchip/xc32/v2.10/bin/bin/../../lib/gcc/pic32c/6.2.1/../../../../pic32c/lib/v7e-m/fpv5/hard\libpic32c.a(write.o)
 .debug_ranges  0x00003f70       0x10 d:/00_program_installation/microchip/xc32/v2.10/bin/bin/../../lib/gcc/pic32c/6.2.1/../../../../pic32c/lib/v7e-m/fpv5/hard\libpic32c.a(_mon_getc.o)
 .debug_ranges  0x00003f80       0x10 d:/00_program_installation/microchip/xc32/v2.10/bin/bin/../../lib/gcc/pic32c/6.2.1/../../../../pic32c/lib/v7e-m/fpv5/hard\libpic32c.a(_mon_putc.o)

.debug_line     0x00000000    0x193c8
 .debug_line    0x00000000      0x37e build/default/production/_ext/1360937237/main.o
 .debug_line    0x0000037e      0x163 build/default/production/_ext/1360937237/app.o
 .debug_line    0x000004e1      0x637 build/default/production/_ext/1171490990/initialization.o
 .debug_line    0x00000b18      0x3cb build/default/production/_ext/1171490990/tasks.o
 .debug_line    0x00000ee3      0x3ac build/default/production/_ext/1171490990/interrupts.o
 .debug_line    0x0000128f      0x3cb build/default/production/_ext/1171490990/exceptions.o
 .debug_line    0x0000165a      0x1be build/default/production/_ext/60165520/plib_clk.o
 .debug_line    0x00001818      0x265 build/default/production/_ext/60177924/plib_pio.o
 .debug_line    0x00001a7d      0x1d0 build/default/production/_ext/1865468468/plib_nvic.o
 .debug_line    0x00001c4d      0x19d build/default/production/_ext/60175264/plib_mpu.o
 .debug_line    0x00001dea      0x4bb build/default/production/_ext/1171490990/startup.o
 .debug_line    0x000022a5      0x256 build/default/production/_ext/1881668453/sys_int.o
 .debug_line    0x000024fb      0xe4b build/default/production/_ext/444070925/drv_ethphy.o
 .debug_line    0x00003346      0x38b build/default/production/_ext/444070925/drv_extphy_smsc8740.o
 .debug_line    0x000036d1      0x8d2 build/default/production/_ext/438849557/drv_miim.o
 .debug_line    0x00003fa3      0xdf4 build/default/production/_ext/1546807373/drv_gmac.o
 .debug_line    0x00004d97      0x907 build/default/production/_ext/1546807373/drv_gmac_lib.o
 .debug_line    0x0000569e      0x85c build/default/production/_ext/718466696/net_pres.o
 .debug_line    0x00005efa      0x638 build/default/production/_ext/101884895/sys_time.o
 .debug_line    0x00006532      0x299 build/default/production/_ext/829342655/plib_tc0.o
 .debug_line    0x000067cb      0xa79 build/default/production/_ext/1033058136/arp.o
 .debug_line    0x00007244      0xbf3 build/default/production/_ext/1033058136/berkeley_api.o
 .debug_line    0x00007e37      0xdb5 build/default/production/_ext/1033058136/dhcp.o
 .debug_line    0x00008bec      0xb54 build/default/production/_ext/1033058136/dns.o
 .debug_line    0x00009740      0x941 build/default/production/_ext/1033058136/ipv4.o
 .debug_line    0x0000a081      0x3d9 build/default/production/_ext/1033058136/tcpip_heap_alloc.o
 .debug_line    0x0000a45a      0x62d build/default/production/_ext/1033058136/tcpip_heap_internal.o
 .debug_line    0x0000aa87      0x277 build/default/production/_ext/1033058136/helpers.o
 .debug_line    0x0000acfe      0x1f7 build/default/production/_ext/1033058136/hash_fnv.o
 .debug_line    0x0000aef5      0x2c2 build/default/production/_ext/1033058136/oahash.o
 .debug_line    0x0000b1b7      0xec5 build/default/production/_ext/1033058136/tcpip_helpers.o
 .debug_line    0x0000c07c     0x1472 build/default/production/_ext/1033058136/tcpip_manager.o
 .debug_line    0x0000d4ee      0x420 build/default/production/_ext/1033058136/tcpip_notify.o
 .debug_line    0x0000d90e      0x52b build/default/production/_ext/1033058136/tcpip_packet.o
 .debug_line    0x0000de39      0x1c7 build/default/production/_ext/753841488/sys_time_h2_adapter.o
 .debug_line    0x0000e000     0x176d build/default/production/_ext/1033058136/tcp.o
 .debug_line    0x0000f76d      0xf65 build/default/production/_ext/1033058136/udp.o
 .debug_line    0x000106d2       0xe5 d:/00_program_installation/microchip/xc32/v2.10/bin/bin/../../lib/gcc/pic32c/6.2.1/../../../../pic32c/lib/v7e-m/fpv5/hard\libpic32c.a(data_init.o)
 .debug_line    0x000107b7       0xa3 d:/00_program_installation/microchip/xc32/v2.10/bin/bin/../../lib/gcc/pic32c/6.2.1/v7e-m/fpv5/hard\libgcc.a(_aeabi_uldivmod.o)
 .debug_line    0x0001085a      0x4cd d:/00_program_installation/microchip/xc32/v2.10/bin/bin/../../lib/gcc/pic32c/6.2.1/v7e-m/fpv5/hard\libgcc.a(_udivmoddi4.o)
 .debug_line    0x00010d27       0xa3 d:/00_program_installation/microchip/xc32/v2.10/bin/bin/../../lib/gcc/pic32c/6.2.1/v7e-m/fpv5/hard\libgcc.a(_dvmd_tls.o)
 .debug_line    0x00010dca      0x21f d:/00_program_installation/microchip/xc32/v2.10/bin/bin/../../lib/gcc/pic32c/6.2.1/../../../../pic32c/lib/v7e-m/fpv5/hard\libc.a(lib_a-calloc.o)
 .debug_line    0x00010fe9      0x1d3 d:/00_program_installation/microchip/xc32/v2.10/bin/bin/../../lib/gcc/pic32c/6.2.1/../../../../pic32c/lib/v7e-m/fpv5/hard\libc.a(lib_a-callocr.o)
 .debug_line    0x000111bc      0x1b1 d:/00_program_installation/microchip/xc32/v2.10/bin/bin/../../lib/gcc/pic32c/6.2.1/../../../../pic32c/lib/v7e-m/fpv5/hard\libc.a(lib_a-errno.o)
 .debug_line    0x0001136d      0x196 d:/00_program_installation/microchip/xc32/v2.10/bin/bin/../../lib/gcc/pic32c/6.2.1/../../../../pic32c/lib/v7e-m/fpv5/hard\libc.a(lib_a-impure.o)
 .debug_line    0x00011503      0x120 d:/00_program_installation/microchip/xc32/v2.10/bin/bin/../../lib/gcc/pic32c/6.2.1/../../../../pic32c/lib/v7e-m/fpv5/hard\libc.a(lib_a-init.o)
 .debug_line    0x00011623      0x354 d:/00_program_installation/microchip/xc32/v2.10/bin/bin/../../lib/gcc/pic32c/6.2.1/../../../../pic32c/lib/v7e-m/fpv5/hard\libc.a(lib_a-locale.o)
 .debug_line    0x00011977      0x23d d:/00_program_installation/microchip/xc32/v2.10/bin/bin/../../lib/gcc/pic32c/6.2.1/../../../../pic32c/lib/v7e-m/fpv5/hard\libc.a(lib_a-malloc.o)
 .debug_line    0x00011bb4      0x3de d:/00_program_installation/microchip/xc32/v2.10/bin/bin/../../lib/gcc/pic32c/6.2.1/../../../../pic32c/lib/v7e-m/fpv5/hard\libc.a(lib_a-mallocr.o)
 .debug_line    0x00011f92      0x301 d:/00_program_installation/microchip/xc32/v2.10/bin/bin/../../lib/gcc/pic32c/6.2.1/../../../../pic32c/lib/v7e-m/fpv5/hard\libc.a(lib_a-mbtowc_r.o)
 .debug_line    0x00012293      0x23c d:/00_program_installation/microchip/xc32/v2.10/bin/bin/../../lib/gcc/pic32c/6.2.1/../../../../pic32c/lib/v7e-m/fpv5/hard\libc.a(lib_a-memcmp.o)
 .debug_line    0x000124cf       0xfb d:/00_program_installation/microchip/xc32/v2.10/bin/bin/../../lib/gcc/pic32c/6.2.1/../../../../pic32c/lib/v7e-m/fpv5/hard\libc.a(lib_a-memcpy.o)
 .debug_line    0x000125ca      0x300 d:/00_program_installation/microchip/xc32/v2.10/bin/bin/../../lib/gcc/pic32c/6.2.1/../../../../pic32c/lib/v7e-m/fpv5/hard\libc.a(lib_a-memset.o)
 .debug_line    0x000128ca      0x1a5 d:/00_program_installation/microchip/xc32/v2.10/bin/bin/../../lib/gcc/pic32c/6.2.1/../../../../pic32c/lib/v7e-m/fpv5/hard\libc.a(lib_a-mlock.o)
 .debug_line    0x00012a6f      0x236 d:/00_program_installation/microchip/xc32/v2.10/bin/bin/../../lib/gcc/pic32c/6.2.1/../../../../pic32c/lib/v7e-m/fpv5/hard\libc.a(lib_a-rand.o)
 .debug_line    0x00012ca5      0x230 d:/00_program_installation/microchip/xc32/v2.10/bin/bin/../../lib/gcc/pic32c/6.2.1/../../../../pic32c/lib/v7e-m/fpv5/hard\libc.a(lib_a-sbrkr.o)
 .debug_line    0x00012ed5      0x174 d:/00_program_installation/microchip/xc32/v2.10/bin/bin/../../lib/gcc/pic32c/6.2.1/../../../../pic32c/lib/v7e-m/fpv5/hard\libc.a(lib_a-strcmp.o)
 .debug_line    0x00013049       0xec d:/00_program_installation/microchip/xc32/v2.10/bin/bin/../../lib/gcc/pic32c/6.2.1/../../../../pic32c/lib/v7e-m/fpv5/hard\libc.a(lib_a-strlen.o)
 .debug_line    0x00013135      0x23d d:/00_program_installation/microchip/xc32/v2.10/bin/bin/../../lib/gcc/pic32c/6.2.1/../../../../pic32c/lib/v7e-m/fpv5/hard\libc.a(lib_a-strncpy.o)
 .debug_line    0x00013372      0x2fc d:/00_program_installation/microchip/xc32/v2.10/bin/bin/../../lib/gcc/pic32c/6.2.1/../../../../pic32c/lib/v7e-m/fpv5/hard\libc.a(lib_a-wctomb_r.o)
 .debug_line    0x0001366e      0x1d2 d:/00_program_installation/microchip/xc32/v2.10/bin/bin/../../lib/gcc/pic32c/6.2.1/../../../../pic32c/lib/v7e-m/fpv5/hard\libc.a(snprintf.cdnopsuxX.o)
 .debug_line    0x00013840      0x6df d:/00_program_installation/microchip/xc32/v2.10/bin/bin/../../lib/gcc/pic32c/6.2.1/../../../../pic32c/lib/v7e-m/fpv5/hard\libc.a(vfprintf.cdnopsuxX.o)
 .debug_line    0x00013f1f      0x201 d:/00_program_installation/microchip/xc32/v2.10/bin/bin/../../lib/gcc/pic32c/6.2.1/../../../../pic32c/lib/v7e-m/fpv5/hard\libc.a(vsnprintf.cdnopsuxX.o)
 .debug_line    0x00014120      0x280 d:/00_program_installation/microchip/xc32/v2.10/bin/bin/../../lib/gcc/pic32c/6.2.1/../../../../pic32c/lib/v7e-m/fpv5/hard\libc.a(lib_a-__call_atexit.o)
 .debug_line    0x000143a0      0x22b d:/00_program_installation/microchip/xc32/v2.10/bin/bin/../../lib/gcc/pic32c/6.2.1/../../../../pic32c/lib/v7e-m/fpv5/hard\libc.a(lib_a-atexit.o)
 .debug_line    0x000145cb      0x23d d:/00_program_installation/microchip/xc32/v2.10/bin/bin/../../lib/gcc/pic32c/6.2.1/../../../../pic32c/lib/v7e-m/fpv5/hard\libc.a(lib_a-ctype_.o)
 .debug_line    0x00014808      0x2fc d:/00_program_installation/microchip/xc32/v2.10/bin/bin/../../lib/gcc/pic32c/6.2.1/../../../../pic32c/lib/v7e-m/fpv5/hard\libc.a(lib_a-fflush.o)
 .debug_line    0x00014b04      0x3bb d:/00_program_installation/microchip/xc32/v2.10/bin/bin/../../lib/gcc/pic32c/6.2.1/../../../../pic32c/lib/v7e-m/fpv5/hard\libc.a(lib_a-findfp.o)
 .debug_line    0x00014ebf      0x117 d:/00_program_installation/microchip/xc32/v2.10/bin/bin/../../lib/gcc/pic32c/6.2.1/../../../../pic32c/lib/v7e-m/fpv5/hard\libc.a(lib_a-fini.o)
 .debug_line    0x00014fd6      0x2ff d:/00_program_installation/microchip/xc32/v2.10/bin/bin/../../lib/gcc/pic32c/6.2.1/../../../../pic32c/lib/v7e-m/fpv5/hard\libc.a(lib_a-freer.o)
 .debug_line    0x000152d5      0x284 d:/00_program_installation/microchip/xc32/v2.10/bin/bin/../../lib/gcc/pic32c/6.2.1/../../../../pic32c/lib/v7e-m/fpv5/hard\libc.a(lib_a-fwalk.o)
 .debug_line    0x00015559       0xe1 d:/00_program_installation/microchip/xc32/v2.10/bin/bin/../../lib/gcc/pic32c/6.2.1/../../../../pic32c/lib/v7e-m/fpv5/hard\libc.a(lib_a-memchr.o)
 .debug_line    0x0001563a      0x259 d:/00_program_installation/microchip/xc32/v2.10/bin/bin/../../lib/gcc/pic32c/6.2.1/../../../../pic32c/lib/v7e-m/fpv5/hard\libc.a(lib_a-reent.o)
 .debug_line    0x00015893      0x2c7 d:/00_program_installation/microchip/xc32/v2.10/bin/bin/../../lib/gcc/pic32c/6.2.1/../../../../pic32c/lib/v7e-m/fpv5/hard\libc.a(lib_a-stdio.o)
 .debug_line    0x00015b5a      0x84d d:/00_program_installation/microchip/xc32/v2.10/bin/bin/../../lib/gcc/pic32c/6.2.1/../../../../pic32c/lib/v7e-m/fpv5/hard\libc.a(lib_a-vfiprintf.o)
 .debug_line    0x000163a7      0x233 d:/00_program_installation/microchip/xc32/v2.10/bin/bin/../../lib/gcc/pic32c/6.2.1/../../../../pic32c/lib/v7e-m/fpv5/hard\libc.a(lib_a-writer.o)
 .debug_line    0x000165da      0x286 d:/00_program_installation/microchip/xc32/v2.10/bin/bin/../../lib/gcc/pic32c/6.2.1/../../../../pic32c/lib/v7e-m/fpv5/hard\libc.a(lib_a-wsetup.o)
 .debug_line    0x00016860      0x25e d:/00_program_installation/microchip/xc32/v2.10/bin/bin/../../lib/gcc/pic32c/6.2.1/../../../../pic32c/lib/v7e-m/fpv5/hard\libc.a(lib_a-__atexit.o)
 .debug_line    0x00016abe      0x231 d:/00_program_installation/microchip/xc32/v2.10/bin/bin/../../lib/gcc/pic32c/6.2.1/../../../../pic32c/lib/v7e-m/fpv5/hard\libc.a(lib_a-closer.o)
 .debug_line    0x00016cef      0x275 d:/00_program_installation/microchip/xc32/v2.10/bin/bin/../../lib/gcc/pic32c/6.2.1/../../../../pic32c/lib/v7e-m/fpv5/hard\libc.a(lib_a-fclose.o)
 .debug_line    0x00016f64      0x2ca d:/00_program_installation/microchip/xc32/v2.10/bin/bin/../../lib/gcc/pic32c/6.2.1/../../../../pic32c/lib/v7e-m/fpv5/hard\libc.a(lib_a-fputwc.o)
 .debug_line    0x0001722e      0x351 d:/00_program_installation/microchip/xc32/v2.10/bin/bin/../../lib/gcc/pic32c/6.2.1/../../../../pic32c/lib/v7e-m/fpv5/hard\libc.a(lib_a-fvwrite.o)
 .debug_line    0x0001757f      0x233 d:/00_program_installation/microchip/xc32/v2.10/bin/bin/../../lib/gcc/pic32c/6.2.1/../../../../pic32c/lib/v7e-m/fpv5/hard\libc.a(lib_a-lseekr.o)
 .debug_line    0x000177b2      0x369 d:/00_program_installation/microchip/xc32/v2.10/bin/bin/../../lib/gcc/pic32c/6.2.1/../../../../pic32c/lib/v7e-m/fpv5/hard\libc.a(lib_a-makebuf.o)
 .debug_line    0x00017b1b      0x2fe d:/00_program_installation/microchip/xc32/v2.10/bin/bin/../../lib/gcc/pic32c/6.2.1/../../../../pic32c/lib/v7e-m/fpv5/hard\libc.a(lib_a-memmove.o)
 .debug_line    0x00017e19      0x232 d:/00_program_installation/microchip/xc32/v2.10/bin/bin/../../lib/gcc/pic32c/6.2.1/../../../../pic32c/lib/v7e-m/fpv5/hard\libc.a(lib_a-readr.o)
 .debug_line    0x0001804b      0x2ab d:/00_program_installation/microchip/xc32/v2.10/bin/bin/../../lib/gcc/pic32c/6.2.1/../../../../pic32c/lib/v7e-m/fpv5/hard\libc.a(lib_a-reallocr.o)
 .debug_line    0x000182f6      0x29c d:/00_program_installation/microchip/xc32/v2.10/bin/bin/../../lib/gcc/pic32c/6.2.1/../../../../pic32c/lib/v7e-m/fpv5/hard\libc.a(lib_a-wbuf.o)
 .debug_line    0x00018592      0x327 d:/00_program_installation/microchip/xc32/v2.10/bin/bin/../../lib/gcc/pic32c/6.2.1/../../../../pic32c/lib/v7e-m/fpv5/hard\libc.a(lib_a-wcrtomb.o)
 .debug_line    0x000188b9      0x2e7 d:/00_program_installation/microchip/xc32/v2.10/bin/bin/../../lib/gcc/pic32c/6.2.1/../../../../pic32c/lib/v7e-m/fpv5/hard\libc.a(lib_a-fstatr.o)
 .debug_line    0x00018ba0      0x232 d:/00_program_installation/microchip/xc32/v2.10/bin/bin/../../lib/gcc/pic32c/6.2.1/../../../../pic32c/lib/v7e-m/fpv5/hard\libc.a(lib_a-isattyr.o)
 .debug_line    0x00018dd2       0xa3 d:/00_program_installation/microchip/xc32/v2.10/bin/bin/../../lib/gcc/pic32c/6.2.1/../../../../pic32c/lib/v7e-m/fpv5/hard\libpic32c.a(close.o)
 .debug_line    0x00018e75       0xa4 d:/00_program_installation/microchip/xc32/v2.10/bin/bin/../../lib/gcc/pic32c/6.2.1/../../../../pic32c/lib/v7e-m/fpv5/hard\libpic32c.a(fstat.o)
 .debug_line    0x00018f19       0xa4 d:/00_program_installation/microchip/xc32/v2.10/bin/bin/../../lib/gcc/pic32c/6.2.1/../../../../pic32c/lib/v7e-m/fpv5/hard\libpic32c.a(isatty.o)
 .debug_line    0x00018fbd       0xa3 d:/00_program_installation/microchip/xc32/v2.10/bin/bin/../../lib/gcc/pic32c/6.2.1/../../../../pic32c/lib/v7e-m/fpv5/hard\libpic32c.a(lseek.o)
 .debug_line    0x00019060       0xb5 d:/00_program_installation/microchip/xc32/v2.10/bin/bin/../../lib/gcc/pic32c/6.2.1/../../../../pic32c/lib/v7e-m/fpv5/hard\libpic32c.a(read.o)
 .debug_line    0x00019115       0xaa d:/00_program_installation/microchip/xc32/v2.10/bin/bin/../../lib/gcc/pic32c/6.2.1/../../../../pic32c/lib/v7e-m/fpv5/hard\libpic32c.a(sbrk.o)
 .debug_line    0x000191bf       0xbc d:/00_program_installation/microchip/xc32/v2.10/bin/bin/../../lib/gcc/pic32c/6.2.1/../../../../pic32c/lib/v7e-m/fpv5/hard\libpic32c.a(write.o)
 .debug_line    0x0001927b       0xa7 d:/00_program_installation/microchip/xc32/v2.10/bin/bin/../../lib/gcc/pic32c/6.2.1/../../../../pic32c/lib/v7e-m/fpv5/hard\libpic32c.a(_mon_getc.o)
 .debug_line    0x00019322       0xa6 d:/00_program_installation/microchip/xc32/v2.10/bin/bin/../../lib/gcc/pic32c/6.2.1/../../../../pic32c/lib/v7e-m/fpv5/hard\libpic32c.a(_mon_putc.o)

.debug_str      0x00000000     0x49ef
 .debug_str     0x00000000       0x45 build/default/production/_ext/1360937237/main.o
 .debug_str     0x00000045        0xe build/default/production/_ext/1360937237/app.o
 .debug_str     0x00000053      0x15c build/default/production/_ext/1171490990/initialization.o
 .debug_str     0x000001af       0x65 build/default/production/_ext/1171490990/tasks.o
 .debug_str     0x00000214       0x2c build/default/production/_ext/1171490990/interrupts.o
 .debug_str     0x00000240       0x2c build/default/production/_ext/1171490990/exceptions.o
 .debug_str     0x0000026c        0xa build/default/production/_ext/60165520/plib_clk.o
 .debug_str     0x00000276        0xa build/default/production/_ext/60177924/plib_pio.o
 .debug_str     0x00000280       0x28 build/default/production/_ext/1865468468/plib_nvic.o
 .debug_str     0x000002a8        0x0 build/default/production/_ext/60175264/plib_mpu.o
 .debug_str     0x000002a8       0xa6 build/default/production/_ext/1171490990/startup.o
 .debug_str     0x0000034e       0x10 build/default/production/_ext/1881668453/sys_int.o
 .debug_str     0x0000035e      0x52c build/default/production/_ext/444070925/drv_ethphy.o
 .debug_str     0x0000088a       0x4d build/default/production/_ext/444070925/drv_extphy_smsc8740.o
 .debug_str     0x000008d7      0x2c7 build/default/production/_ext/438849557/drv_miim.o
 .debug_str     0x00000b9e      0x354 build/default/production/_ext/1546807373/drv_gmac.o
 .debug_str     0x00000ef2      0x133 build/default/production/_ext/1546807373/drv_gmac_lib.o
 .debug_str     0x00001025       0xbd build/default/production/_ext/718466696/net_pres.o
 .debug_str     0x000010e2       0xc3 build/default/production/_ext/101884895/sys_time.o
 .debug_str     0x000011a5        0xa build/default/production/_ext/829342655/plib_tc0.o
 .debug_str     0x000011af      0x4bc build/default/production/_ext/1033058136/arp.o
 .debug_str     0x0000166b      0x4f3 build/default/production/_ext/1033058136/berkeley_api.o
 .debug_str     0x00001b5e      0x60a build/default/production/_ext/1033058136/dhcp.o
 .debug_str     0x00002168      0x4c3 build/default/production/_ext/1033058136/dns.o
 .debug_str     0x0000262b      0x531 build/default/production/_ext/1033058136/ipv4.o
 .debug_str     0x00002b5c       0x6d build/default/production/_ext/1033058136/tcpip_heap_alloc.o
 .debug_str     0x00002bc9       0xaf build/default/production/_ext/1033058136/tcpip_heap_internal.o
 .debug_str     0x00002c78        0xe build/default/production/_ext/1033058136/helpers.o
 .debug_str     0x00002c86        0xe build/default/production/_ext/1033058136/hash_fnv.o
 .debug_str     0x00002c94       0x18 build/default/production/_ext/1033058136/oahash.o
 .debug_str     0x00002cac      0x13d build/default/production/_ext/1033058136/tcpip_helpers.o
 .debug_str     0x00002de9      0x4d8 build/default/production/_ext/1033058136/tcpip_manager.o
 .debug_str     0x000032c1       0xfe build/default/production/_ext/1033058136/tcpip_notify.o
 .debug_str     0x000033bf       0x21 build/default/production/_ext/1033058136/tcpip_packet.o
 .debug_str     0x000033e0       0x25 build/default/production/_ext/753841488/sys_time_h2_adapter.o
 .debug_str     0x00003405      0x3e2 build/default/production/_ext/1033058136/tcp.o
 .debug_str     0x000037e7      0x394 build/default/production/_ext/1033058136/udp.o
 .debug_str     0x00003b7b        0x0 d:/00_program_installation/microchip/xc32/v2.10/bin/bin/../../lib/gcc/pic32c/6.2.1/../../../../pic32c/lib/v7e-m/fpv5/hard\libpic32c.a(data_init.o)
 .debug_str     0x00003b7b        0xe d:/00_program_installation/microchip/xc32/v2.10/bin/bin/../../lib/gcc/pic32c/6.2.1/v7e-m/fpv5/hard\libgcc.a(_udivmoddi4.o)
 .debug_str     0x00003b89       0x18 d:/00_program_installation/microchip/xc32/v2.10/bin/bin/../../lib/gcc/pic32c/6.2.1/../../../../pic32c/lib/v7e-m/fpv5/hard\libc.a(lib_a-calloc.o)
 .debug_str     0x00003ba1       0x18 d:/00_program_installation/microchip/xc32/v2.10/bin/bin/../../lib/gcc/pic32c/6.2.1/../../../../pic32c/lib/v7e-m/fpv5/hard\libc.a(lib_a-callocr.o)
 .debug_str     0x00003bb9        0xe d:/00_program_installation/microchip/xc32/v2.10/bin/bin/../../lib/gcc/pic32c/6.2.1/../../../../pic32c/lib/v7e-m/fpv5/hard\libc.a(lib_a-errno.o)
 .debug_str     0x00003bc7        0xe d:/00_program_installation/microchip/xc32/v2.10/bin/bin/../../lib/gcc/pic32c/6.2.1/../../../../pic32c/lib/v7e-m/fpv5/hard\libc.a(lib_a-impure.o)
 .debug_str     0x00003bd5        0x0 d:/00_program_installation/microchip/xc32/v2.10/bin/bin/../../lib/gcc/pic32c/6.2.1/../../../../pic32c/lib/v7e-m/fpv5/hard\libc.a(lib_a-init.o)
 .debug_str     0x00003bd5      0x139 d:/00_program_installation/microchip/xc32/v2.10/bin/bin/../../lib/gcc/pic32c/6.2.1/../../../../pic32c/lib/v7e-m/fpv5/hard\libc.a(lib_a-locale.o)
 .debug_str     0x00003d0e       0x18 d:/00_program_installation/microchip/xc32/v2.10/bin/bin/../../lib/gcc/pic32c/6.2.1/../../../../pic32c/lib/v7e-m/fpv5/hard\libc.a(lib_a-malloc.o)
 .debug_str     0x00003d26       0x36 d:/00_program_installation/microchip/xc32/v2.10/bin/bin/../../lib/gcc/pic32c/6.2.1/../../../../pic32c/lib/v7e-m/fpv5/hard\libc.a(lib_a-mallocr.o)
 .debug_str     0x00003d5c      0x119 d:/00_program_installation/microchip/xc32/v2.10/bin/bin/../../lib/gcc/pic32c/6.2.1/../../../../pic32c/lib/v7e-m/fpv5/hard\libc.a(lib_a-mbtowc_r.o)
 .debug_str     0x00003e75        0xe d:/00_program_installation/microchip/xc32/v2.10/bin/bin/../../lib/gcc/pic32c/6.2.1/../../../../pic32c/lib/v7e-m/fpv5/hard\libc.a(lib_a-memcmp.o)
 .debug_str     0x00003e83      0x119 d:/00_program_installation/microchip/xc32/v2.10/bin/bin/../../lib/gcc/pic32c/6.2.1/../../../../pic32c/lib/v7e-m/fpv5/hard\libc.a(lib_a-memset.o)
 .debug_str     0x00003f9c        0xe d:/00_program_installation/microchip/xc32/v2.10/bin/bin/../../lib/gcc/pic32c/6.2.1/../../../../pic32c/lib/v7e-m/fpv5/hard\libc.a(lib_a-mlock.o)
 .debug_str     0x00003faa        0xe d:/00_program_installation/microchip/xc32/v2.10/bin/bin/../../lib/gcc/pic32c/6.2.1/../../../../pic32c/lib/v7e-m/fpv5/hard\libc.a(lib_a-rand.o)
 .debug_str     0x00003fb8        0xe d:/00_program_installation/microchip/xc32/v2.10/bin/bin/../../lib/gcc/pic32c/6.2.1/../../../../pic32c/lib/v7e-m/fpv5/hard\libc.a(lib_a-sbrkr.o)
 .debug_str     0x00003fc6        0xe d:/00_program_installation/microchip/xc32/v2.10/bin/bin/../../lib/gcc/pic32c/6.2.1/../../../../pic32c/lib/v7e-m/fpv5/hard\libc.a(lib_a-strncpy.o)
 .debug_str     0x00003fd4      0x119 d:/00_program_installation/microchip/xc32/v2.10/bin/bin/../../lib/gcc/pic32c/6.2.1/../../../../pic32c/lib/v7e-m/fpv5/hard\libc.a(lib_a-wctomb_r.o)
 .debug_str     0x000040ed       0x23 d:/00_program_installation/microchip/xc32/v2.10/bin/bin/../../lib/gcc/pic32c/6.2.1/../../../../pic32c/lib/v7e-m/fpv5/hard\libc.a(snprintf.cdnopsuxX.o)
 .debug_str     0x00004110      0x13a d:/00_program_installation/microchip/xc32/v2.10/bin/bin/../../lib/gcc/pic32c/6.2.1/../../../../pic32c/lib/v7e-m/fpv5/hard\libc.a(vfprintf.cdnopsuxX.o)
 .debug_str     0x0000424a       0x22 d:/00_program_installation/microchip/xc32/v2.10/bin/bin/../../lib/gcc/pic32c/6.2.1/../../../../pic32c/lib/v7e-m/fpv5/hard\libc.a(vsnprintf.cdnopsuxX.o)
 .debug_str     0x0000426c        0xe d:/00_program_installation/microchip/xc32/v2.10/bin/bin/../../lib/gcc/pic32c/6.2.1/../../../../pic32c/lib/v7e-m/fpv5/hard\libc.a(lib_a-__call_atexit.o)
 .debug_str     0x0000427a       0x22 d:/00_program_installation/microchip/xc32/v2.10/bin/bin/../../lib/gcc/pic32c/6.2.1/../../../../pic32c/lib/v7e-m/fpv5/hard\libc.a(lib_a-atexit.o)
 .debug_str     0x0000429c      0x119 d:/00_program_installation/microchip/xc32/v2.10/bin/bin/../../lib/gcc/pic32c/6.2.1/../../../../pic32c/lib/v7e-m/fpv5/hard\libc.a(lib_a-ctype_.o)
 .debug_str     0x000043b5       0x1b d:/00_program_installation/microchip/xc32/v2.10/bin/bin/../../lib/gcc/pic32c/6.2.1/../../../../pic32c/lib/v7e-m/fpv5/hard\libc.a(lib_a-fflush.o)
 .debug_str     0x000043d0       0x25 d:/00_program_installation/microchip/xc32/v2.10/bin/bin/../../lib/gcc/pic32c/6.2.1/../../../../pic32c/lib/v7e-m/fpv5/hard\libc.a(lib_a-findfp.o)
 .debug_str     0x000043f5        0x0 d:/00_program_installation/microchip/xc32/v2.10/bin/bin/../../lib/gcc/pic32c/6.2.1/../../../../pic32c/lib/v7e-m/fpv5/hard\libc.a(lib_a-fini.o)
 .debug_str     0x000043f5       0x36 d:/00_program_installation/microchip/xc32/v2.10/bin/bin/../../lib/gcc/pic32c/6.2.1/../../../../pic32c/lib/v7e-m/fpv5/hard\libc.a(lib_a-freer.o)
 .debug_str     0x0000442b        0xe d:/00_program_installation/microchip/xc32/v2.10/bin/bin/../../lib/gcc/pic32c/6.2.1/../../../../pic32c/lib/v7e-m/fpv5/hard\libc.a(lib_a-fwalk.o)
 .debug_str     0x00004439        0xe d:/00_program_installation/microchip/xc32/v2.10/bin/bin/../../lib/gcc/pic32c/6.2.1/../../../../pic32c/lib/v7e-m/fpv5/hard\libc.a(lib_a-reent.o)
 .debug_str     0x00004447       0x30 d:/00_program_installation/microchip/xc32/v2.10/bin/bin/../../lib/gcc/pic32c/6.2.1/../../../../pic32c/lib/v7e-m/fpv5/hard\libc.a(lib_a-stdio.o)
 .debug_str     0x00004477      0x154 d:/00_program_installation/microchip/xc32/v2.10/bin/bin/../../lib/gcc/pic32c/6.2.1/../../../../pic32c/lib/v7e-m/fpv5/hard\libc.a(lib_a-vfiprintf.o)
 .debug_str     0x000045cb       0x15 d:/00_program_installation/microchip/xc32/v2.10/bin/bin/../../lib/gcc/pic32c/6.2.1/../../../../pic32c/lib/v7e-m/fpv5/hard\libc.a(lib_a-writer.o)
 .debug_str     0x000045e0       0x1b d:/00_program_installation/microchip/xc32/v2.10/bin/bin/../../lib/gcc/pic32c/6.2.1/../../../../pic32c/lib/v7e-m/fpv5/hard\libc.a(lib_a-wsetup.o)
 .debug_str     0x000045fb        0xe d:/00_program_installation/microchip/xc32/v2.10/bin/bin/../../lib/gcc/pic32c/6.2.1/../../../../pic32c/lib/v7e-m/fpv5/hard\libc.a(lib_a-__atexit.o)
 .debug_str     0x00004609       0x15 d:/00_program_installation/microchip/xc32/v2.10/bin/bin/../../lib/gcc/pic32c/6.2.1/../../../../pic32c/lib/v7e-m/fpv5/hard\libc.a(lib_a-closer.o)
 .debug_str     0x0000461e       0x3f d:/00_program_installation/microchip/xc32/v2.10/bin/bin/../../lib/gcc/pic32c/6.2.1/../../../../pic32c/lib/v7e-m/fpv5/hard\libc.a(lib_a-fclose.o)
 .debug_str     0x0000465d       0x37 d:/00_program_installation/microchip/xc32/v2.10/bin/bin/../../lib/gcc/pic32c/6.2.1/../../../../pic32c/lib/v7e-m/fpv5/hard\libc.a(lib_a-fputwc.o)
 .debug_str     0x00004694       0x39 d:/00_program_installation/microchip/xc32/v2.10/bin/bin/../../lib/gcc/pic32c/6.2.1/../../../../pic32c/lib/v7e-m/fpv5/hard\libc.a(lib_a-fvwrite.o)
 .debug_str     0x000046cd       0x15 d:/00_program_installation/microchip/xc32/v2.10/bin/bin/../../lib/gcc/pic32c/6.2.1/../../../../pic32c/lib/v7e-m/fpv5/hard\libc.a(lib_a-lseekr.o)
 .debug_str     0x000046e2       0x36 d:/00_program_installation/microchip/xc32/v2.10/bin/bin/../../lib/gcc/pic32c/6.2.1/../../../../pic32c/lib/v7e-m/fpv5/hard\libc.a(lib_a-makebuf.o)
 .debug_str     0x00004718      0x119 d:/00_program_installation/microchip/xc32/v2.10/bin/bin/../../lib/gcc/pic32c/6.2.1/../../../../pic32c/lib/v7e-m/fpv5/hard\libc.a(lib_a-memmove.o)
 .debug_str     0x00004831       0x14 d:/00_program_installation/microchip/xc32/v2.10/bin/bin/../../lib/gcc/pic32c/6.2.1/../../../../pic32c/lib/v7e-m/fpv5/hard\libc.a(lib_a-readr.o)
 .debug_str     0x00004845       0x42 d:/00_program_installation/microchip/xc32/v2.10/bin/bin/../../lib/gcc/pic32c/6.2.1/../../../../pic32c/lib/v7e-m/fpv5/hard\libc.a(lib_a-reallocr.o)
 .debug_str     0x00004887       0x24 d:/00_program_installation/microchip/xc32/v2.10/bin/bin/../../lib/gcc/pic32c/6.2.1/../../../../pic32c/lib/v7e-m/fpv5/hard\libc.a(lib_a-wbuf.o)
 .debug_str     0x000048ab      0x119 d:/00_program_installation/microchip/xc32/v2.10/bin/bin/../../lib/gcc/pic32c/6.2.1/../../../../pic32c/lib/v7e-m/fpv5/hard\libc.a(lib_a-wcrtomb.o)
 .debug_str     0x000049c4       0x15 d:/00_program_installation/microchip/xc32/v2.10/bin/bin/../../lib/gcc/pic32c/6.2.1/../../../../pic32c/lib/v7e-m/fpv5/hard\libc.a(lib_a-fstatr.o)
 .debug_str     0x000049d9       0x16 d:/00_program_installation/microchip/xc32/v2.10/bin/bin/../../lib/gcc/pic32c/6.2.1/../../../../pic32c/lib/v7e-m/fpv5/hard\libc.a(lib_a-isattyr.o)
 .debug_str     0x000049ef        0x0 d:/00_program_installation/microchip/xc32/v2.10/bin/bin/../../lib/gcc/pic32c/6.2.1/../../../../pic32c/lib/v7e-m/fpv5/hard\libpic32c.a(close.o)
 .debug_str     0x000049ef        0x0 d:/00_program_installation/microchip/xc32/v2.10/bin/bin/../../lib/gcc/pic32c/6.2.1/../../../../pic32c/lib/v7e-m/fpv5/hard\libpic32c.a(fstat.o)
 .debug_str     0x000049ef        0x0 d:/00_program_installation/microchip/xc32/v2.10/bin/bin/../../lib/gcc/pic32c/6.2.1/../../../../pic32c/lib/v7e-m/fpv5/hard\libpic32c.a(isatty.o)
 .debug_str     0x000049ef        0x0 d:/00_program_installation/microchip/xc32/v2.10/bin/bin/../../lib/gcc/pic32c/6.2.1/../../../../pic32c/lib/v7e-m/fpv5/hard\libpic32c.a(lseek.o)
 .debug_str     0x000049ef        0x0 d:/00_program_installation/microchip/xc32/v2.10/bin/bin/../../lib/gcc/pic32c/6.2.1/../../../../pic32c/lib/v7e-m/fpv5/hard\libpic32c.a(read.o)
 .debug_str     0x000049ef        0x0 d:/00_program_installation/microchip/xc32/v2.10/bin/bin/../../lib/gcc/pic32c/6.2.1/../../../../pic32c/lib/v7e-m/fpv5/hard\libpic32c.a(sbrk.o)
 .debug_str     0x000049ef        0x0 d:/00_program_installation/microchip/xc32/v2.10/bin/bin/../../lib/gcc/pic32c/6.2.1/../../../../pic32c/lib/v7e-m/fpv5/hard\libpic32c.a(write.o)
 .debug_str     0x000049ef        0x0 d:/00_program_installation/microchip/xc32/v2.10/bin/bin/../../lib/gcc/pic32c/6.2.1/../../../../pic32c/lib/v7e-m/fpv5/hard\libpic32c.a(_mon_getc.o)
 .debug_str     0x000049ef        0x0 d:/00_program_installation/microchip/xc32/v2.10/bin/bin/../../lib/gcc/pic32c/6.2.1/../../../../pic32c/lib/v7e-m/fpv5/hard\libpic32c.a(_mon_putc.o)

.debug_frame    0x00000000     0x6660
 .debug_frame   0x00000000       0x28 build/default/production/_ext/1360937237/main.o
 .debug_frame   0x00000028       0x30 build/default/production/_ext/1360937237/app.o
 .debug_frame   0x00000058       0x44 build/default/production/_ext/1171490990/initialization.o
 .debug_frame   0x0000009c       0x28 build/default/production/_ext/1171490990/tasks.o
 .debug_frame   0x000000c4       0x20 build/default/production/_ext/1171490990/interrupts.o
 .debug_frame   0x000000e4       0x70 build/default/production/_ext/1171490990/exceptions.o
 .debug_frame   0x00000154       0x20 build/default/production/_ext/60165520/plib_clk.o
 .debug_frame   0x00000174       0xc0 build/default/production/_ext/60177924/plib_pio.o
 .debug_frame   0x00000234       0x20 build/default/production/_ext/1865468468/plib_nvic.o
 .debug_frame   0x00000254       0x20 build/default/production/_ext/60175264/plib_mpu.o
 .debug_frame   0x00000274       0x30 build/default/production/_ext/1171490990/startup.o
 .debug_frame   0x000002a4       0x5c build/default/production/_ext/1881668453/sys_int.o
 .debug_frame   0x00000300      0x730 build/default/production/_ext/444070925/drv_ethphy.o
 .debug_frame   0x00000a30       0x70 build/default/production/_ext/444070925/drv_extphy_smsc8740.o
 .debug_frame   0x00000aa0      0x2dc build/default/production/_ext/438849557/drv_miim.o
 .debug_frame   0x00000d7c      0x658 build/default/production/_ext/1546807373/drv_gmac.o
 .debug_frame   0x000013d4      0x20c build/default/production/_ext/1546807373/drv_gmac_lib.o
 .debug_frame   0x000015e0      0x3d8 build/default/production/_ext/718466696/net_pres.o
 .debug_frame   0x000019b8      0x2dc build/default/production/_ext/101884895/sys_time.o
 .debug_frame   0x00001c94       0xb4 build/default/production/_ext/829342655/plib_tc0.o
 .debug_frame   0x00001d48      0x4dc build/default/production/_ext/1033058136/arp.o
 .debug_frame   0x00002224      0x44c build/default/production/_ext/1033058136/berkeley_api.o
 .debug_frame   0x00002670      0x52c build/default/production/_ext/1033058136/dhcp.o
 .debug_frame   0x00002b9c      0x490 build/default/production/_ext/1033058136/dns.o
 .debug_frame   0x0000302c      0x288 build/default/production/_ext/1033058136/ipv4.o
 .debug_frame   0x000032b4       0x9c build/default/production/_ext/1033058136/tcpip_heap_alloc.o
 .debug_frame   0x00003350      0x130 build/default/production/_ext/1033058136/tcpip_heap_internal.o
 .debug_frame   0x00003480       0xb8 build/default/production/_ext/1033058136/helpers.o
 .debug_frame   0x00003538       0x30 build/default/production/_ext/1033058136/hash_fnv.o
 .debug_frame   0x00003568       0xc0 build/default/production/_ext/1033058136/oahash.o
 .debug_frame   0x00003628      0x6bc build/default/production/_ext/1033058136/tcpip_helpers.o
 .debug_frame   0x00003ce4      0xa74 build/default/production/_ext/1033058136/tcpip_manager.o
 .debug_frame   0x00004758       0x94 build/default/production/_ext/1033058136/tcpip_notify.o
 .debug_frame   0x000047ec      0x154 build/default/production/_ext/1033058136/tcpip_packet.o
 .debug_frame   0x00004940       0x40 build/default/production/_ext/753841488/sys_time_h2_adapter.o
 .debug_frame   0x00004980      0x764 build/default/production/_ext/1033058136/tcp.o
 .debug_frame   0x000050e4      0x620 build/default/production/_ext/1033058136/udp.o
 .debug_frame   0x00005704       0x30 d:/00_program_installation/microchip/xc32/v2.10/bin/bin/../../lib/gcc/pic32c/6.2.1/../../../../pic32c/lib/v7e-m/fpv5/hard\libpic32c.a(data_init.o)
 .debug_frame   0x00005734       0x2c d:/00_program_installation/microchip/xc32/v2.10/bin/bin/../../lib/gcc/pic32c/6.2.1/v7e-m/fpv5/hard\libgcc.a(_aeabi_uldivmod.o)
 .debug_frame   0x00005760       0x34 d:/00_program_installation/microchip/xc32/v2.10/bin/bin/../../lib/gcc/pic32c/6.2.1/v7e-m/fpv5/hard\libgcc.a(_udivmoddi4.o)
 .debug_frame   0x00005794       0x20 d:/00_program_installation/microchip/xc32/v2.10/bin/bin/../../lib/gcc/pic32c/6.2.1/../../../../pic32c/lib/v7e-m/fpv5/hard\libc.a(lib_a-calloc.o)
 .debug_frame   0x000057b4       0x28 d:/00_program_installation/microchip/xc32/v2.10/bin/bin/../../lib/gcc/pic32c/6.2.1/../../../../pic32c/lib/v7e-m/fpv5/hard\libc.a(lib_a-callocr.o)
 .debug_frame   0x000057dc       0x20 d:/00_program_installation/microchip/xc32/v2.10/bin/bin/../../lib/gcc/pic32c/6.2.1/../../../../pic32c/lib/v7e-m/fpv5/hard\libc.a(lib_a-errno.o)
 .debug_frame   0x000057fc       0x2c d:/00_program_installation/microchip/xc32/v2.10/bin/bin/../../lib/gcc/pic32c/6.2.1/../../../../pic32c/lib/v7e-m/fpv5/hard\libc.a(lib_a-init.o)
 .debug_frame   0x00005828       0x6c d:/00_program_installation/microchip/xc32/v2.10/bin/bin/../../lib/gcc/pic32c/6.2.1/../../../../pic32c/lib/v7e-m/fpv5/hard\libc.a(lib_a-locale.o)
 .debug_frame   0x00005894       0x30 d:/00_program_installation/microchip/xc32/v2.10/bin/bin/../../lib/gcc/pic32c/6.2.1/../../../../pic32c/lib/v7e-m/fpv5/hard\libc.a(lib_a-malloc.o)
 .debug_frame   0x000058c4       0x58 d:/00_program_installation/microchip/xc32/v2.10/bin/bin/../../lib/gcc/pic32c/6.2.1/../../../../pic32c/lib/v7e-m/fpv5/hard\libc.a(lib_a-mallocr.o)
 .debug_frame   0x0000591c       0x4c d:/00_program_installation/microchip/xc32/v2.10/bin/bin/../../lib/gcc/pic32c/6.2.1/../../../../pic32c/lib/v7e-m/fpv5/hard\libc.a(lib_a-mbtowc_r.o)
 .debug_frame   0x00005968       0x3c d:/00_program_installation/microchip/xc32/v2.10/bin/bin/../../lib/gcc/pic32c/6.2.1/../../../../pic32c/lib/v7e-m/fpv5/hard\libc.a(lib_a-memcmp.o)
 .debug_frame   0x000059a4       0x34 d:/00_program_installation/microchip/xc32/v2.10/bin/bin/../../lib/gcc/pic32c/6.2.1/../../../../pic32c/lib/v7e-m/fpv5/hard\libc.a(lib_a-memset.o)
 .debug_frame   0x000059d8       0x30 d:/00_program_installation/microchip/xc32/v2.10/bin/bin/../../lib/gcc/pic32c/6.2.1/../../../../pic32c/lib/v7e-m/fpv5/hard\libc.a(lib_a-mlock.o)
 .debug_frame   0x00005a08       0x3c d:/00_program_installation/microchip/xc32/v2.10/bin/bin/../../lib/gcc/pic32c/6.2.1/../../../../pic32c/lib/v7e-m/fpv5/hard\libc.a(lib_a-rand.o)
 .debug_frame   0x00005a44       0x2c d:/00_program_installation/microchip/xc32/v2.10/bin/bin/../../lib/gcc/pic32c/6.2.1/../../../../pic32c/lib/v7e-m/fpv5/hard\libc.a(lib_a-sbrkr.o)
 .debug_frame   0x00005a70       0x68 d:/00_program_installation/microchip/xc32/v2.10/bin/bin/../../lib/gcc/pic32c/6.2.1/../../../../pic32c/lib/v7e-m/fpv5/hard\libc.a(lib_a-strcmp.o)
 .debug_frame   0x00005ad8       0x34 d:/00_program_installation/microchip/xc32/v2.10/bin/bin/../../lib/gcc/pic32c/6.2.1/../../../../pic32c/lib/v7e-m/fpv5/hard\libc.a(lib_a-strncpy.o)
 .debug_frame   0x00005b0c       0x3c d:/00_program_installation/microchip/xc32/v2.10/bin/bin/../../lib/gcc/pic32c/6.2.1/../../../../pic32c/lib/v7e-m/fpv5/hard\libc.a(lib_a-wctomb_r.o)
 .debug_frame   0x00005b48       0x3c d:/00_program_installation/microchip/xc32/v2.10/bin/bin/../../lib/gcc/pic32c/6.2.1/../../../../pic32c/lib/v7e-m/fpv5/hard\libc.a(snprintf.cdnopsuxX.o)
 .debug_frame   0x00005b84       0x88 d:/00_program_installation/microchip/xc32/v2.10/bin/bin/../../lib/gcc/pic32c/6.2.1/../../../../pic32c/lib/v7e-m/fpv5/hard\libc.a(vfprintf.cdnopsuxX.o)
 .debug_frame   0x00005c0c       0x34 d:/00_program_installation/microchip/xc32/v2.10/bin/bin/../../lib/gcc/pic32c/6.2.1/../../../../pic32c/lib/v7e-m/fpv5/hard\libc.a(vsnprintf.cdnopsuxX.o)
 .debug_frame   0x00005c40       0x50 d:/00_program_installation/microchip/xc32/v2.10/bin/bin/../../lib/gcc/pic32c/6.2.1/../../../../pic32c/lib/v7e-m/fpv5/hard\libc.a(lib_a-__call_atexit.o)
 .debug_frame   0x00005c90       0x20 d:/00_program_installation/microchip/xc32/v2.10/bin/bin/../../lib/gcc/pic32c/6.2.1/../../../../pic32c/lib/v7e-m/fpv5/hard\libc.a(lib_a-atexit.o)
 .debug_frame   0x00005cb0       0x6c d:/00_program_installation/microchip/xc32/v2.10/bin/bin/../../lib/gcc/pic32c/6.2.1/../../../../pic32c/lib/v7e-m/fpv5/hard\libc.a(lib_a-fflush.o)
 .debug_frame   0x00005d1c      0x124 d:/00_program_installation/microchip/xc32/v2.10/bin/bin/../../lib/gcc/pic32c/6.2.1/../../../../pic32c/lib/v7e-m/fpv5/hard\libc.a(lib_a-findfp.o)
 .debug_frame   0x00005e40       0x34 d:/00_program_installation/microchip/xc32/v2.10/bin/bin/../../lib/gcc/pic32c/6.2.1/../../../../pic32c/lib/v7e-m/fpv5/hard\libc.a(lib_a-fini.o)
 .debug_frame   0x00005e74       0x74 d:/00_program_installation/microchip/xc32/v2.10/bin/bin/../../lib/gcc/pic32c/6.2.1/../../../../pic32c/lib/v7e-m/fpv5/hard\libc.a(lib_a-freer.o)
 .debug_frame   0x00005ee8       0x54 d:/00_program_installation/microchip/xc32/v2.10/bin/bin/../../lib/gcc/pic32c/6.2.1/../../../../pic32c/lib/v7e-m/fpv5/hard\libc.a(lib_a-fwalk.o)
 .debug_frame   0x00005f3c       0x58 d:/00_program_installation/microchip/xc32/v2.10/bin/bin/../../lib/gcc/pic32c/6.2.1/../../../../pic32c/lib/v7e-m/fpv5/hard\libc.a(lib_a-reent.o)
 .debug_frame   0x00005f94       0x88 d:/00_program_installation/microchip/xc32/v2.10/bin/bin/../../lib/gcc/pic32c/6.2.1/../../../../pic32c/lib/v7e-m/fpv5/hard\libc.a(lib_a-stdio.o)
 .debug_frame   0x0000601c       0xc8 d:/00_program_installation/microchip/xc32/v2.10/bin/bin/../../lib/gcc/pic32c/6.2.1/../../../../pic32c/lib/v7e-m/fpv5/hard\libc.a(lib_a-vfiprintf.o)
 .debug_frame   0x000060e4       0x2c d:/00_program_installation/microchip/xc32/v2.10/bin/bin/../../lib/gcc/pic32c/6.2.1/../../../../pic32c/lib/v7e-m/fpv5/hard\libc.a(lib_a-writer.o)
 .debug_frame   0x00006110       0x2c d:/00_program_installation/microchip/xc32/v2.10/bin/bin/../../lib/gcc/pic32c/6.2.1/../../../../pic32c/lib/v7e-m/fpv5/hard\libc.a(lib_a-wsetup.o)
 .debug_frame   0x0000613c       0x34 d:/00_program_installation/microchip/xc32/v2.10/bin/bin/../../lib/gcc/pic32c/6.2.1/../../../../pic32c/lib/v7e-m/fpv5/hard\libc.a(lib_a-__atexit.o)
 .debug_frame   0x00006170       0x2c d:/00_program_installation/microchip/xc32/v2.10/bin/bin/../../lib/gcc/pic32c/6.2.1/../../../../pic32c/lib/v7e-m/fpv5/hard\libc.a(lib_a-closer.o)
 .debug_frame   0x0000619c       0x3c d:/00_program_installation/microchip/xc32/v2.10/bin/bin/../../lib/gcc/pic32c/6.2.1/../../../../pic32c/lib/v7e-m/fpv5/hard\libc.a(lib_a-fclose.o)
 .debug_frame   0x000061d8       0x8c d:/00_program_installation/microchip/xc32/v2.10/bin/bin/../../lib/gcc/pic32c/6.2.1/../../../../pic32c/lib/v7e-m/fpv5/hard\libc.a(lib_a-fputwc.o)
 .debug_frame   0x00006264       0x68 d:/00_program_installation/microchip/xc32/v2.10/bin/bin/../../lib/gcc/pic32c/6.2.1/../../../../pic32c/lib/v7e-m/fpv5/hard\libc.a(lib_a-fvwrite.o)
 .debug_frame   0x000062cc       0x2c d:/00_program_installation/microchip/xc32/v2.10/bin/bin/../../lib/gcc/pic32c/6.2.1/../../../../pic32c/lib/v7e-m/fpv5/hard\libc.a(lib_a-lseekr.o)
 .debug_frame   0x000062f8       0x68 d:/00_program_installation/microchip/xc32/v2.10/bin/bin/../../lib/gcc/pic32c/6.2.1/../../../../pic32c/lib/v7e-m/fpv5/hard\libc.a(lib_a-makebuf.o)
 .debug_frame   0x00006360       0x30 d:/00_program_installation/microchip/xc32/v2.10/bin/bin/../../lib/gcc/pic32c/6.2.1/../../../../pic32c/lib/v7e-m/fpv5/hard\libc.a(lib_a-memmove.o)
 .debug_frame   0x00006390       0x2c d:/00_program_installation/microchip/xc32/v2.10/bin/bin/../../lib/gcc/pic32c/6.2.1/../../../../pic32c/lib/v7e-m/fpv5/hard\libc.a(lib_a-readr.o)
 .debug_frame   0x000063bc       0x68 d:/00_program_installation/microchip/xc32/v2.10/bin/bin/../../lib/gcc/pic32c/6.2.1/../../../../pic32c/lib/v7e-m/fpv5/hard\libc.a(lib_a-reallocr.o)
 .debug_frame   0x00006424       0x40 d:/00_program_installation/microchip/xc32/v2.10/bin/bin/../../lib/gcc/pic32c/6.2.1/../../../../pic32c/lib/v7e-m/fpv5/hard\libc.a(lib_a-wbuf.o)
 .debug_frame   0x00006464       0x5c d:/00_program_installation/microchip/xc32/v2.10/bin/bin/../../lib/gcc/pic32c/6.2.1/../../../../pic32c/lib/v7e-m/fpv5/hard\libc.a(lib_a-wcrtomb.o)
 .debug_frame   0x000064c0       0x2c d:/00_program_installation/microchip/xc32/v2.10/bin/bin/../../lib/gcc/pic32c/6.2.1/../../../../pic32c/lib/v7e-m/fpv5/hard\libc.a(lib_a-fstatr.o)
 .debug_frame   0x000064ec       0x2c d:/00_program_installation/microchip/xc32/v2.10/bin/bin/../../lib/gcc/pic32c/6.2.1/../../../../pic32c/lib/v7e-m/fpv5/hard\libc.a(lib_a-isattyr.o)
 .debug_frame   0x00006518       0x30 d:/00_program_installation/microchip/xc32/v2.10/bin/bin/../../lib/gcc/pic32c/6.2.1/../../../../pic32c/lib/v7e-m/fpv5/hard\libpic32c.a(close.o)
 .debug_frame   0x00006548       0x20 d:/00_program_installation/microchip/xc32/v2.10/bin/bin/../../lib/gcc/pic32c/6.2.1/../../../../pic32c/lib/v7e-m/fpv5/hard\libpic32c.a(fstat.o)
 .debug_frame   0x00006568       0x20 d:/00_program_installation/microchip/xc32/v2.10/bin/bin/../../lib/gcc/pic32c/6.2.1/../../../../pic32c/lib/v7e-m/fpv5/hard\libpic32c.a(isatty.o)
 .debug_frame   0x00006588       0x20 d:/00_program_installation/microchip/xc32/v2.10/bin/bin/../../lib/gcc/pic32c/6.2.1/../../../../pic32c/lib/v7e-m/fpv5/hard\libpic32c.a(lseek.o)
 .debug_frame   0x000065a8       0x2c d:/00_program_installation/microchip/xc32/v2.10/bin/bin/../../lib/gcc/pic32c/6.2.1/../../../../pic32c/lib/v7e-m/fpv5/hard\libpic32c.a(read.o)
 .debug_frame   0x000065d4       0x20 d:/00_program_installation/microchip/xc32/v2.10/bin/bin/../../lib/gcc/pic32c/6.2.1/../../../../pic32c/lib/v7e-m/fpv5/hard\libpic32c.a(sbrk.o)
 .debug_frame   0x000065f4       0x2c d:/00_program_installation/microchip/xc32/v2.10/bin/bin/../../lib/gcc/pic32c/6.2.1/../../../../pic32c/lib/v7e-m/fpv5/hard\libpic32c.a(write.o)
 .debug_frame   0x00006620       0x20 d:/00_program_installation/microchip/xc32/v2.10/bin/bin/../../lib/gcc/pic32c/6.2.1/../../../../pic32c/lib/v7e-m/fpv5/hard\libpic32c.a(_mon_getc.o)
 .debug_frame   0x00006640       0x20 d:/00_program_installation/microchip/xc32/v2.10/bin/bin/../../lib/gcc/pic32c/6.2.1/../../../../pic32c/lib/v7e-m/fpv5/hard\libpic32c.a(_mon_putc.o)

.stack          0x2040b890      0x100
 .stack         0x2040b890      0x100 stack

.bss.gmac_dcpt_array%1
                0x2045f000       0xf0
 .bss.gmac_dcpt_array
                0x2045f000       0xf0 build/default/production/_ext/1546807373/drv_gmac_lib.o
                0x2045f000                gmac_dcpt_array

.data.impure_data%2
                0x2045f0f0      0x428
 .data.impure_data
                0x2045f0f0      0x428 d:/00_program_installation/microchip/xc32/v2.10/bin/bin/../../lib/gcc/pic32c/6.2.1/../../../../pic32c/lib/v7e-m/fpv5/hard\libc.a(lib_a-impure.o)

.data.__malloc_av_%3
                0x2045f518      0x408
 .data.__malloc_av_
                0x2045f518      0x408 d:/00_program_installation/microchip/xc32/v2.10/bin/bin/../../lib/gcc/pic32c/6.2.1/../../../../pic32c/lib/v7e-m/fpv5/hard\libc.a(lib_a-mallocr.o)
                0x2045f518                __malloc_av_

.data._pic32c_emb_mac_dcpt%4
                0x2045f920      0x300
 .data._pic32c_emb_mac_dcpt
                0x2045f920      0x300 build/default/production/_ext/1546807373/drv_gmac.o

.bss.TCPIP_STACK_MODULE_SIGNAL_TBL%5
                0x2045fc20      0x260
 .bss.TCPIP_STACK_MODULE_SIGNAL_TBL
                0x2045fc20      0x260 build/default/production/_ext/1033058136/tcpip_manager.o

.bss.timers%6   0x20400334      0x190
 .bss.timers    0x20400334      0x190 build/default/production/_ext/101884895/sys_time.o

.data.__global_locale%7
                0x2045fe80      0x16c
 .data.__global_locale
                0x2045fe80      0x16c d:/00_program_installation/microchip/xc32/v2.10/bin/bin/../../lib/gcc/pic32c/6.2.1/../../../../pic32c/lib/v7e-m/fpv5/hard\libc.a(lib_a-locale.o)
                0x2045fe80                __global_locale

.bss.gDrvMIIMObj%8
                0x204004c4       0x94
 .bss.gDrvMIIMObj
                0x204004c4       0x94 build/default/production/_ext/438849557/drv_miim.o

.bss.TCPIP_MODULES_QUEUE_TBL%9
                0x20400558       0x90
 .bss.TCPIP_MODULES_QUEUE_TBL
                0x20400558       0x90 build/default/production/_ext/1033058136/tcpip_manager.o

.bss.gDrvETHPHYObj%10
                0x204005e8       0x64
 .bss.gDrvETHPHYObj
                0x204005e8       0x64 build/default/production/_ext/444070925/drv_ethphy.o

.bss.arpMod%11  0x2040064c       0x44
 .bss.arpMod    0x2040064c       0x44 build/default/production/_ext/1033058136/arp.o

.bss.gSystemCounterObj%12
                0x20400690       0x30
 .bss.gSystemCounterObj
                0x20400690       0x30 build/default/production/_ext/101884895/sys_time.o

.bss.gDnsDcpt%13
                0x204006c0       0x28
 .bss.gDnsDcpt  0x204006c0       0x28 build/default/production/_ext/1033058136/dns.o

.data.tcpSecurePortTbl%14
                0x204006e8       0x28
 .data.tcpSecurePortTbl
                0x204006e8       0x28 build/default/production/_ext/1033058136/tcpip_helpers.o

.bss.__malloc_current_mallinfo%15
                0x20400710       0x28
 .bss.__malloc_current_mallinfo
                0x20400710       0x28 d:/00_program_installation/microchip/xc32/v2.10/bin/bin/../../lib/gcc/pic32c/6.2.1/../../../../pic32c/lib/v7e-m/fpv5/hard\libc.a(lib_a-mallocr.o)
                0x20400710                __malloc_current_mallinfo

.bss.tcpip_stack_ctrl_data%16
                0x20400738       0x20
 .bss.tcpip_stack_ctrl_data
                0x20400738       0x20 build/default/production/_ext/1033058136/tcpip_manager.o

.bss%17         0x20400758       0x1c
 .bss           0x20400758       0x1c d:/00_program_installation/microchip/xc32/v2.10/bin/bin/../../lib/gcc/pic32c/6.2.1/v7e-m/fpv5/hard/crtbegin.o

.data.sysTimePlibAPI%18
                0x2045ffec       0x14
 .data.sysTimePlibAPI
                0x2045ffec       0x14 build/default/production/_ext/1171490990/initialization.o
                0x2045ffec                sysTimePlibAPI

.data.tcpipHeapConfig%19
                0x20400774       0x14
 .data.tcpipHeapConfig
                0x20400774       0x14 build/default/production/_ext/1171490990/initialization.o
                0x20400774                tcpipHeapConfig

.bss.tcpip_init_data%20
                0x20400788       0x14
 .bss.tcpip_init_data
                0x20400788       0x14 build/default/production/_ext/1033058136/tcpip_manager.o

.bss.dhcpRegisteredUsers%21
                0x2040079c       0x10
 .bss.dhcpRegisteredUsers
                0x2040079c       0x10 build/default/production/_ext/1033058136/dhcp.o

.bss.ipv4ArpQueue%22
                0x204007ac       0x10
 .bss.ipv4ArpQueue
                0x204007ac       0x10 build/default/production/_ext/1033058136/ipv4.o

.bss.ipv4PacketFilters%23
                0x204007bc       0x10
 .bss.ipv4PacketFilters
                0x204007bc       0x10 build/default/production/_ext/1033058136/ipv4.o

.bss.tcpip_heap_config%24
                0x204007cc       0x10
 .bss.tcpip_heap_config
                0x204007cc       0x10 build/default/production/_ext/1033058136/tcpip_manager.o

.data.sysTimeInitData%25
                0x204007dc        0xc
 .data.sysTimeInitData
                0x204007dc        0xc build/default/production/_ext/1171490990/initialization.o
                0x204007dc                sysTimeInitData

.data.arpBcastAdd%26
                0x204007e8        0x6
 .data.arpBcastAdd
                0x204007e8        0x6 build/default/production/_ext/1033058136/arp.o

.bss.cmd.13127%27
                0x204007f0        0x4
 .bss.cmd.13127
                0x204007f0        0x4 build/default/production/_ext/1171490990/startup.o

.bss._MIIMStayAssertLoop%28
                0x204007f4        0x4
 .bss._MIIMStayAssertLoop
                0x204007f4        0x4 build/default/production/_ext/438849557/drv_miim.o
                0x204007f4                _MIIMStayAssertLoop

.bss._hEventMac%29
                0x204007f8        0x4
 .bss._hEventMac
                0x204007f8        0x4 build/default/production/_ext/1546807373/drv_gmac.o

.bss.TC0_CH0_TimerStatus%30
                0x204007fc        0x4
 .bss.TC0_CH0_TimerStatus
                0x204007fc        0x4 build/default/production/_ext/829342655/plib_tc0.o

.bss.BSDSocketArray%31
                0x20400800        0x4
 .bss.BSDSocketArray
                0x20400800        0x4 build/default/production/_ext/1033058136/berkeley_api.o

.bss.InitCount%32
                0x20400804        0x4
 .bss.InitCount
                0x20400804        0x4 build/default/production/_ext/1033058136/berkeley_api.o

.bss.bsdApiHeapH%33
                0x20400808        0x4
 .bss.bsdApiHeapH
                0x20400808        0x4 build/default/production/_ext/1033058136/berkeley_api.o

.bss.bsdSignalHandle%34
                0x2040080c        0x4
 .bss.bsdSignalHandle
                0x2040080c        0x4 build/default/production/_ext/1033058136/berkeley_api.o

.bss.DHCPClients%35
                0x20400810        0x4
 .bss.DHCPClients
                0x20400810        0x4 build/default/production/_ext/1033058136/dhcp.o

.bss.dhcpFilterHandle%36
                0x20400814        0x4
 .bss.dhcpFilterHandle
                0x20400814        0x4 build/default/production/_ext/1033058136/dhcp.o

.bss.dhcpInitCount%37
                0x20400818        0x4
 .bss.dhcpInitCount
                0x20400818        0x4 build/default/production/_ext/1033058136/dhcp.o

.bss.dhcpInterfaces%38
                0x2040081c        0x4
 .bss.dhcpInterfaces
                0x2040081c        0x4 build/default/production/_ext/1033058136/dhcp.o

.bss.dhcpMemH%39
                0x20400820        0x4
 .bss.dhcpMemH  0x20400820        0x4 build/default/production/_ext/1033058136/dhcp.o

.bss.dhcpSecondCount%40
                0x20400824        0x4
 .bss.dhcpSecondCount
                0x20400824        0x4 build/default/production/_ext/1033058136/dhcp.o

.bss.dhcpSignalHandle%41
                0x20400828        0x4
 .bss.dhcpSignalHandle
                0x20400828        0x4 build/default/production/_ext/1033058136/dhcp.o

.bss._DNSStayAssertLoop%42
                0x2040082c        0x4
 .bss._DNSStayAssertLoop
                0x2040082c        0x4 build/default/production/_ext/1033058136/dns.o
                0x2040082c                _DNSStayAssertLoop

.bss._DNSStayCondLoop%43
                0x20400830        0x4
 .bss._DNSStayCondLoop
                0x20400830        0x4 build/default/production/_ext/1033058136/dns.o
                0x20400830                _DNSStayCondLoop

.bss.dnsInitCount%44
                0x20400834        0x4
 .bss.dnsInitCount
                0x20400834        0x4 build/default/production/_ext/1033058136/dns.o

.bss.pgDnsDcpt%45
                0x20400838        0x4
 .bss.pgDnsDcpt
                0x20400838        0x4 build/default/production/_ext/1033058136/dns.o

.bss._IPv4StayAssertLoop%46
                0x2040083c        0x4
 .bss._IPv4StayAssertLoop
                0x2040083c        0x4 build/default/production/_ext/1033058136/ipv4.o
                0x2040083c                _IPv4StayAssertLoop

.bss.ipv4ArpHandle%47
                0x20400840        0x4
 .bss.ipv4ArpHandle
                0x20400840        0x4 build/default/production/_ext/1033058136/ipv4.o

.bss.ipv4MemH%48
                0x20400844        0x4
 .bss.ipv4MemH  0x20400844        0x4 build/default/production/_ext/1033058136/ipv4.o

.bss.signalHandle%49
                0x20400848        0x4
 .bss.signalHandle
                0x20400848        0x4 build/default/production/_ext/1033058136/ipv4.o

.bss.newTcpipErrorEventCnt%50
                0x2040084c        0x4
 .bss.newTcpipErrorEventCnt
                0x2040084c        0x4 build/default/production/_ext/1033058136/tcpip_manager.o

.bss.newTcpipStackEventCnt%51
                0x20400850        0x4
 .bss.newTcpipStackEventCnt
                0x20400850        0x4 build/default/production/_ext/1033058136/tcpip_manager.o

.bss.newTcpipTickAvlbl%52
                0x20400854        0x4
 .bss.newTcpipTickAvlbl
                0x20400854        0x4 build/default/production/_ext/1033058136/tcpip_manager.o

.bss.stackAsyncSignalCount%53
                0x20400858        0x4
 .bss.stackAsyncSignalCount
                0x20400858        0x4 build/default/production/_ext/1033058136/tcpip_manager.o

.bss.stackTaskRate%54
                0x2040085c        0x4
 .bss.stackTaskRate
                0x2040085c        0x4 build/default/production/_ext/1033058136/tcpip_manager.o

.bss.tcpipDefIf%55
                0x20400860        0x4
 .bss.tcpipDefIf
                0x20400860        0x4 build/default/production/_ext/1033058136/tcpip_manager.o

.bss.tcpipNetIf%56
                0x20400864        0x4
 .bss.tcpipNetIf
                0x20400864        0x4 build/default/production/_ext/1033058136/tcpip_manager.o

.bss.totTcpipEventsCnt%57
                0x20400868        0x4
 .bss.totTcpipEventsCnt
                0x20400868        0x4 build/default/production/_ext/1033058136/tcpip_manager.o

.data.tcpip_stack_tickH%58
                0x2040086c        0x4
 .data.tcpip_stack_tickH
                0x2040086c        0x4 build/default/production/_ext/1033058136/tcpip_manager.o

.bss.pktMemH%59
                0x20400870        0x4
 .bss.pktMemH   0x20400870        0x4 build/default/production/_ext/1033058136/tcpip_packet.o

.bss.systemAdaptObj%60
                0x20400874        0x4
 .bss.systemAdaptObj
                0x20400874        0x4 build/default/production/_ext/753841488/sys_time_h2_adapter.o

.bss.TCBStubs%61
                0x20400878        0x4
 .bss.TCBStubs  0x20400878        0x4 build/default/production/_ext/1033058136/tcp.o

.bss.TcpSockets%62
                0x2040087c        0x4
 .bss.TcpSockets
                0x2040087c        0x4 build/default/production/_ext/1033058136/tcp.o

.bss.tcpHeapH%63
                0x20400880        0x4
 .bss.tcpHeapH  0x20400880        0x4 build/default/production/_ext/1033058136/tcp.o

.bss.tcpInitCount%64
                0x20400884        0x4
 .bss.tcpInitCount
                0x20400884        0x4 build/default/production/_ext/1033058136/tcp.o

.bss.tcpLockCount%65
                0x20400888        0x4
 .bss.tcpLockCount
                0x20400888        0x4 build/default/production/_ext/1033058136/tcp.o

.bss.tcpSignalHandle%66
                0x2040088c        0x4
 .bss.tcpSignalHandle
                0x2040088c        0x4 build/default/production/_ext/1033058136/tcp.o

.bss.UDPSocketDcpt%67
                0x20400890        0x4
 .bss.UDPSocketDcpt
                0x20400890        0x4 build/default/production/_ext/1033058136/udp.o

.bss.nUdpSockets%68
                0x20400894        0x4
 .bss.nUdpSockets
                0x20400894        0x4 build/default/production/_ext/1033058136/udp.o

.bss.signalHandle%69
                0x20400898        0x4
 .bss.signalHandle
                0x20400898        0x4 build/default/production/_ext/1033058136/udp.o

.bss.udpInitCount%70
                0x2040089c        0x4
 .bss.udpInitCount
                0x2040089c        0x4 build/default/production/_ext/1033058136/udp.o

.bss.udpMemH%71
                0x204008a0        0x4
 .bss.udpMemH   0x204008a0        0x4 build/default/production/_ext/1033058136/udp.o

.data._impure_ptr%72
                0x204008a4        0x4
 .data._impure_ptr
                0x204008a4        0x4 d:/00_program_installation/microchip/xc32/v2.10/bin/bin/../../lib/gcc/pic32c/6.2.1/../../../../pic32c/lib/v7e-m/fpv5/hard\libc.a(lib_a-impure.o)
                0x204008a4                _impure_ptr

.bss.__malloc_max_sbrked_mem%73
                0x204008a8        0x4
 .bss.__malloc_max_sbrked_mem
                0x204008a8        0x4 d:/00_program_installation/microchip/xc32/v2.10/bin/bin/../../lib/gcc/pic32c/6.2.1/../../../../pic32c/lib/v7e-m/fpv5/hard\libc.a(lib_a-mallocr.o)
                0x204008a8                __malloc_max_sbrked_mem

.bss.__malloc_max_total_mem%74
                0x204008ac        0x4
 .bss.__malloc_max_total_mem
                0x204008ac        0x4 d:/00_program_installation/microchip/xc32/v2.10/bin/bin/../../lib/gcc/pic32c/6.2.1/../../../../pic32c/lib/v7e-m/fpv5/hard\libc.a(lib_a-mallocr.o)
                0x204008ac                __malloc_max_total_mem

.bss.__malloc_top_pad%75
                0x204008b0        0x4
 .bss.__malloc_top_pad
                0x204008b0        0x4 d:/00_program_installation/microchip/xc32/v2.10/bin/bin/../../lib/gcc/pic32c/6.2.1/../../../../pic32c/lib/v7e-m/fpv5/hard\libc.a(lib_a-mallocr.o)
                0x204008b0                __malloc_top_pad

.data.__malloc_sbrk_base%76
                0x204008b4        0x4
 .data.__malloc_sbrk_base
                0x204008b4        0x4 d:/00_program_installation/microchip/xc32/v2.10/bin/bin/../../lib/gcc/pic32c/6.2.1/../../../../pic32c/lib/v7e-m/fpv5/hard\libc.a(lib_a-mallocr.o)
                0x204008b4                __malloc_sbrk_base

.data.__malloc_trim_threshold%77
                0x204008b8        0x4
 .data.__malloc_trim_threshold
                0x204008b8        0x4 d:/00_program_installation/microchip/xc32/v2.10/bin/bin/../../lib/gcc/pic32c/6.2.1/../../../../pic32c/lib/v7e-m/fpv5/hard\libc.a(lib_a-mallocr.o)
                0x204008b8                __malloc_trim_threshold

.bss%78         0x204008bc        0x4
 .bss           0x204008bc        0x4 d:/00_program_installation/microchip/xc32/v2.10/bin/bin/../../lib/gcc/pic32c/6.2.1/../../../../pic32c/lib/v7e-m/fpv5/hard\libpic32c.a(sbrk.o)

.bss.gSysTimeTokenCount%79
                0x204007ee        0x2
 .bss.gSysTimeTokenCount
                0x204007ee        0x2 build/default/production/_ext/101884895/sys_time.o

.bss.dhcpClientPort%80
                0x204008c0        0x2
 .bss.dhcpClientPort
                0x204008c0        0x2 build/default/production/_ext/1033058136/dhcp.o

.bss.dhcpClientSocket%81
                0x204008c2        0x2
 .bss.dhcpClientSocket
                0x204008c2        0x2 build/default/production/_ext/1033058136/dhcp.o

.bss.dhcpServerPort%82
                0x204008c4        0x2
 .bss.dhcpServerPort
                0x204008c4        0x2 build/default/production/_ext/1033058136/dhcp.o

.bss.ipv4Identifier%83
                0x204008c6        0x2
 .bss.ipv4Identifier
                0x204008c6        0x2 build/default/production/_ext/1033058136/ipv4.o

.bss.ipv4InitCount%84
                0x204008c8        0x2
 .bss.ipv4InitCount
                0x204008c8        0x2 build/default/production/_ext/1033058136/ipv4.o

.bss.tcpDefRxSize%85
                0x204008ca        0x2
 .bss.tcpDefRxSize
                0x204008ca        0x2 build/default/production/_ext/1033058136/tcp.o

.bss.tcpDefTxSize%86
                0x204008cc        0x2
 .bss.tcpDefTxSize
                0x204008cc        0x2 build/default/production/_ext/1033058136/tcp.o

.bss.udpDefTxSize%87
                0x204008ce        0x2
 .bss.udpDefTxSize
                0x204008ce        0x2 build/default/production/_ext/1033058136/udp.o

.bss.bsdSemaphore%88
                0x204008d0        0x1
 .bss.bsdSemaphore
                0x204008d0        0x1 build/default/production/_ext/1033058136/berkeley_api.o

.data.BSD_SOCKET_COUNT%89
                0x204008d1        0x1
 .data.BSD_SOCKET_COUNT
                0x204008d1        0x1 build/default/production/_ext/1033058136/berkeley_api.o

.bss.ipv4FilterType%90
                0x204008d2        0x1
 .bss.ipv4FilterType
                0x204008d2        0x1 build/default/production/_ext/1033058136/ipv4.o

.bss.tcpip_stack_status%91
                0x204008d3        0x1
 .bss.tcpip_stack_status
                0x204008d3        0x1 build/default/production/_ext/1033058136/tcpip_manager.o

.bss.tcpSemaphore%92
                0x204008d4        0x1
 .bss.tcpSemaphore
                0x204008d4        0x1 build/default/production/_ext/1033058136/tcp.o

.bss.userSem%93
                0x204008d5        0x1
 .bss.userSem   0x204008d5        0x1 build/default/production/_ext/1033058136/udp.o

.jcr%z1         0x00000000        0x0
 .jcr           0x00000000        0x0 d:/00_program_installation/microchip/xc32/v2.10/bin/bin/../../lib/gcc/pic32c/6.2.1/v7e-m/fpv5/hard/crtbegin.o

.eh_frame%z2    0x00000000        0x0
 .eh_frame      0x00000000        0x0 d:/00_program_installation/microchip/xc32/v2.10/bin/bin/../../lib/gcc/pic32c/6.2.1/v7e-m/fpv5/hard/crtbegin.o

.dinit%94       0x00400194     0x11c0
 .dinit         0x00400194     0x11c0 data_init

.text.TCPIP_TCP_Task%95
                0x00401354      0xf24
 .text.TCPIP_TCP_Task
                0x00401354      0xf24 build/default/production/_ext/1033058136/tcp.o
                0x00401354                TCPIP_TCP_Task

.text._vfprintf_r_cdnopsuxX%96
                0x00402278      0x9c0
 .text._vfprintf_r_cdnopsuxX
                0x00402278      0x9c0 d:/00_program_installation/microchip/xc32/v2.10/bin/bin/../../lib/gcc/pic32c/6.2.1/../../../../pic32c/lib/v7e-m/fpv5/hard\libc.a(vfprintf.cdnopsuxX.o)
                0x00402278                _vfprintf_r_cdnopsuxX

.text.TCPIP_STACK_Task%97
                0x00402c38      0x5d8
 .text.TCPIP_STACK_Task
                0x00402c38      0x5d8 build/default/production/_ext/1033058136/tcpip_manager.o
                0x00402c38                TCPIP_STACK_Task

.text._TcpSend%98
                0x00403210      0x5a0
 .text._TcpSend
                0x00403210      0x5a0 build/default/production/_ext/1033058136/tcp.o

.text._malloc_r%99
                0x004037b0      0x550
 .text._malloc_r
                0x004037b0      0x550 d:/00_program_installation/microchip/xc32/v2.10/bin/bin/../../lib/gcc/pic32c/6.2.1/../../../../pic32c/lib/v7e-m/fpv5/hard\libc.a(lib_a-mallocr.o)
                0x004037b0                _malloc_r

.text.TCPIP_DHCP_Task%100
                0x00403d00      0x4e4
 .text.TCPIP_DHCP_Task
                0x00403d00      0x4e4 build/default/production/_ext/1033058136/dhcp.o
                0x00403d00                TCPIP_DHCP_Task

.text.DRV_PIC32CGMAC_LibRxGetPacket%101
                0x004041e4      0x438
 .text.DRV_PIC32CGMAC_LibRxGetPacket
                0x004041e4      0x438 build/default/production/_ext/1546807373/drv_gmac_lib.o
                0x004041e4                DRV_PIC32CGMAC_LibRxGetPacket

.text._realloc_r%102
                0x0040461c      0x34c
 .text._realloc_r
                0x0040461c      0x34c d:/00_program_installation/microchip/xc32/v2.10/bin/bin/../../lib/gcc/pic32c/6.2.1/../../../../pic32c/lib/v7e-m/fpv5/hard\libc.a(lib_a-reallocr.o)
                0x0040461c                _realloc_r

.text.TCPIP_STACK_Initialize%103
                0x00404968      0x2fc
 .text.TCPIP_STACK_Initialize
                0x00404968      0x2fc build/default/production/_ext/1033058136/tcpip_manager.o
                0x00404968                TCPIP_STACK_Initialize

.text.TCPIP_TCP_FifoSizeAdjust%104
                0x00404c64      0x2fc
 .text.TCPIP_TCP_FifoSizeAdjust
                0x00404c64      0x2fc build/default/production/_ext/1033058136/tcp.o
                0x00404c64                TCPIP_TCP_FifoSizeAdjust

.text.__sfvwrite_r%105
                0x00404f60      0x2f0
 .text.__sfvwrite_r
                0x00404f60      0x2f0 d:/00_program_installation/microchip/xc32/v2.10/bin/bin/../../lib/gcc/pic32c/6.2.1/../../../../pic32c/lib/v7e-m/fpv5/hard\libc.a(lib_a-fvwrite.o)
                0x00404f60                __sfvwrite_r

.text%106       0x00405250      0x2dc
 .text          0x00405250      0x2dc d:/00_program_installation/microchip/xc32/v2.10/bin/bin/../../lib/gcc/pic32c/6.2.1/v7e-m/fpv5/hard\libgcc.a(_udivmoddi4.o)
                0x00405250                __udivmoddi4

.text%107       0x00405540      0x2dc
 .text          0x00405540      0x2dc d:/00_program_installation/microchip/xc32/v2.10/bin/bin/../../lib/gcc/pic32c/6.2.1/../../../../pic32c/lib/v7e-m/fpv5/hard\libc.a(lib_a-strcmp.o)
                0x00405548                strcmp

.text.DRV_GMAC_Initialize%108
                0x0040581c      0x2c8
 .text.DRV_GMAC_Initialize
                0x0040581c      0x2c8 build/default/production/_ext/1546807373/drv_gmac.o
                0x0040581c                DRV_GMAC_Initialize

.text.TCPIP_ARP_Task%109
                0x00405ae4      0x2a4
 .text.TCPIP_ARP_Task
                0x00405ae4      0x2a4 build/default/production/_ext/1033058136/arp.o
                0x00405ae4                TCPIP_ARP_Task

.text.DRV_PIC32CGMAC_LibTxSendPacket%110
                0x00405d88      0x298
 .text.DRV_PIC32CGMAC_LibTxSendPacket
                0x00405d88      0x298 build/default/production/_ext/1546807373/drv_gmac_lib.o
                0x00405d88                DRV_PIC32CGMAC_LibTxSendPacket

.text._TCP_Open%111
                0x00406020      0x274
 .text._TCP_Open
                0x00406020      0x274 build/default/production/_ext/1033058136/tcp.o

.text.TCPIP_UDP_Flush%112
                0x00406294      0x22c
 .text.TCPIP_UDP_Flush
                0x00406294      0x22c build/default/production/_ext/1033058136/udp.o
                0x00406294                TCPIP_UDP_Flush

.rodata.macPIC32CHwRegDcpt%113
                0x004064c0      0x21c
 .rodata.macPIC32CHwRegDcpt
                0x004064c0      0x21c build/default/production/_ext/1546807373/drv_gmac.o

.text._DNS_Send_Query%114
                0x004066dc      0x218
 .text._DNS_Send_Query
                0x004066dc      0x218 build/default/production/_ext/1033058136/dns.o

.text.TCPIP_DNS_ClientInitialize%115
                0x004068f4      0x218
 .text.TCPIP_DNS_ClientInitialize
                0x004068f4      0x218 build/default/production/_ext/1033058136/dns.o
                0x004068f4                TCPIP_DNS_ClientInitialize

.text.TCPIP_UDP_OptionsSet%116
                0x00406b0c      0x212
 .text.TCPIP_UDP_OptionsSet
                0x00406b0c      0x212 build/default/production/_ext/1033058136/udp.o
                0x00406b0c                TCPIP_UDP_OptionsSet

.text.TCPIP_UDP_Task%117
                0x00406d20      0x1fc
 .text.TCPIP_UDP_Task
                0x00406d20      0x1fc build/default/production/_ext/1033058136/udp.o
                0x00406d20                TCPIP_UDP_Task

.text._DHCPReceive%118
                0x00406f1c      0x1e0
 .text._DHCPReceive
                0x00406f1c      0x1e0 build/default/production/_ext/1033058136/dhcp.o

.text.TCPIP_ARP_Initialize%119
                0x004070fc      0x1dc
 .text.TCPIP_ARP_Initialize
                0x004070fc      0x1dc build/default/production/_ext/1033058136/arp.o
                0x004070fc                TCPIP_ARP_Initialize

.text._DNS_ProcessPacket%120
                0x004072d8      0x1d8
 .text._DNS_ProcessPacket
                0x004072d8      0x1d8 build/default/production/_ext/1033058136/dns.o

.text.DRV_MIIM_Tasks%121
                0x004074b0      0x1d4
 .text.DRV_MIIM_Tasks
                0x004074b0      0x1d4 build/default/production/_ext/438849557/drv_miim.o
                0x004074b0                DRV_MIIM_Tasks

.text.NET_PRES_Initialize%122
                0x00407684      0x1cc
 .text.NET_PRES_Initialize
                0x00407684      0x1cc build/default/production/_ext/718466696/net_pres.o
                0x00407684                NET_PRES_Initialize

.text._free_r%123
                0x00407850      0x1cc
 .text._free_r  0x00407850      0x1cc d:/00_program_installation/microchip/xc32/v2.10/bin/bin/../../lib/gcc/pic32c/6.2.1/../../../../pic32c/lib/v7e-m/fpv5/hard\libc.a(lib_a-freer.o)
                0x00407850                _free_r

.text.TCPIP_IPV4_PacketTransmit%124
                0x00407a1c      0x1c4
 .text.TCPIP_IPV4_PacketTransmit
                0x00407a1c      0x1c4 build/default/production/_ext/1033058136/ipv4.o
                0x00407a1c                TCPIP_IPV4_PacketTransmit

.text._DHCPSend%125
                0x00407be0      0x1b8
 .text._DHCPSend
                0x00407be0      0x1b8 build/default/production/_ext/1033058136/dhcp.o

.text.TCPIP_DHCP_Initialize%126
                0x00407d98      0x1ac
 .text.TCPIP_DHCP_Initialize
                0x00407d98      0x1ac build/default/production/_ext/1033058136/dhcp.o
                0x00407d98                TCPIP_DHCP_Initialize

.text.TCPIP_IPV4_Task%127
                0x00407f44      0x1ac
 .text.TCPIP_IPV4_Task
                0x00407f44      0x1ac build/default/production/_ext/1033058136/ipv4.o
                0x00407f44                TCPIP_IPV4_Task

.text.TCPIP_STACK_BringNetUp%128
                0x004080f0      0x1a4
 .text.TCPIP_STACK_BringNetUp
                0x004080f0      0x1a4 build/default/production/_ext/1033058136/tcpip_manager.o

.text.TCPIP_TCP_ArrayPut%129
                0x00408294      0x194
 .text.TCPIP_TCP_ArrayPut
                0x00408294      0x194 build/default/production/_ext/1033058136/tcp.o
                0x00408294                TCPIP_TCP_ArrayPut

.text._UDPOpen%130
                0x00408428      0x190
 .text._UDPOpen
                0x00408428      0x190 build/default/production/_ext/1033058136/udp.o

.text._DHCPOptionHostName%131
                0x004085b8      0x18c
 .text._DHCPOptionHostName
                0x004085b8      0x18c build/default/production/_ext/1033058136/dhcp.o

.text.Reset_Handler%132
                0x00408744      0x178
 .text.Reset_Handler
                0x00408744      0x178 build/default/production/_ext/1171490990/startup.o
                0x00408744                Reset_Handler

.text.DRV_PIC32CGMAC_LibRxFilterHash_Calculate%133
                0x004088bc      0x178
 .text.DRV_PIC32CGMAC_LibRxFilterHash_Calculate
                0x004088bc      0x178 build/default/production/_ext/1546807373/drv_gmac_lib.o
                0x004088bc                DRV_PIC32CGMAC_LibRxFilterHash_Calculate

.text.TCPIP_UDP_Bind%134
                0x00408a34      0x164
 .text.TCPIP_UDP_Bind
                0x00408a34      0x164 build/default/production/_ext/1033058136/udp.o
                0x00408a34                TCPIP_UDP_Bind

.text.TCPIP_IPV4_PacketFormatTx%135
                0x00408b98      0x140
 .text.TCPIP_IPV4_PacketFormatTx
                0x00408b98      0x140 build/default/production/_ext/1033058136/ipv4.o
                0x00408b98                TCPIP_IPV4_PacketFormatTx

.text.__sflush_r%136
                0x00408cd8      0x140
 .text.__sflush_r
                0x00408cd8      0x140 d:/00_program_installation/microchip/xc32/v2.10/bin/bin/../../lib/gcc/pic32c/6.2.1/../../../../pic32c/lib/v7e-m/fpv5/hard\libc.a(lib_a-fflush.o)
                0x00408cd8                __sflush_r

.text.closesocket%137
                0x00408e18      0x134
 .text.closesocket
                0x00408e18      0x134 build/default/production/_ext/1033058136/berkeley_api.o
                0x00408e18                closesocket

.text._TCPIP_HEAP_Free%138
                0x00408f4c      0x134
 .text._TCPIP_HEAP_Free
                0x00408f4c      0x134 build/default/production/_ext/1033058136/tcpip_heap_internal.o

.text.TCPIP_UDP_Deinitialize%139
                0x00409080      0x134
 .text.TCPIP_UDP_Deinitialize
                0x00409080      0x134 build/default/production/_ext/1033058136/udp.o
                0x00409080                TCPIP_UDP_Deinitialize

.text%140       0x004091b4      0x134
 .text          0x004091b4      0x134 d:/00_program_installation/microchip/xc32/v2.10/bin/bin/../../lib/gcc/pic32c/6.2.1/../../../../pic32c/lib/v7e-m/fpv5/hard\libc.a(lib_a-memcpy.o)
                0x004091b4                memcpy

.text._DNS_RESPONSE_HashEntryUpdate%141
                0x004092e8      0x12e
 .text._DNS_RESPONSE_HashEntryUpdate
                0x004092e8      0x12e build/default/production/_ext/1033058136/dns.o

.text._MACDeinit%142
                0x00409418      0x124
 .text._MACDeinit
                0x00409418      0x124 build/default/production/_ext/1546807373/drv_gmac.o

.text._DRV_ETHPHY_SetupPhaseDetect%143
                0x0040953c      0x11c
 .text._DRV_ETHPHY_SetupPhaseDetect
                0x0040953c      0x11c build/default/production/_ext/444070925/drv_ethphy.o

.text._LoadNetworkConfig%144
                0x00409658      0x11a
 .text._LoadNetworkConfig
                0x00409658      0x11a build/default/production/_ext/1033058136/tcpip_manager.o

.text.TCPIP_UDP_OptionsGet%145
                0x00409772      0x10e
 .text.TCPIP_UDP_OptionsGet
                0x00409772      0x10e build/default/production/_ext/1033058136/udp.o
                0x00409772                TCPIP_UDP_OptionsGet

.text.TCPIP_TCP_OptionsSet%146
                0x00409880      0x106
 .text.TCPIP_TCP_OptionsSet
                0x00409880      0x106 build/default/production/_ext/1033058136/tcp.o
                0x00409880                TCPIP_TCP_OptionsSet

.rodata._ctype_%147
                0x00409988      0x104
 .rodata._ctype_
                0x00409988      0x104 d:/00_program_installation/microchip/xc32/v2.10/bin/bin/../../lib/gcc/pic32c/6.2.1/../../../../pic32c/lib/v7e-m/fpv5/hard\libc.a(lib_a-ctype_.o)
                0x00409988                _ctype_

.text.TCPIP_DNS_ClientTask%148
                0x00409a8c      0x100
 .text.TCPIP_DNS_ClientTask
                0x00409a8c      0x100 build/default/production/_ext/1033058136/dns.o
                0x00409a8c                TCPIP_DNS_ClientTask

.text.TCPIP_ARP_EntryRemoveNet%149
                0x00409b8c       0xfc
 .text.TCPIP_ARP_EntryRemoveNet
                0x00409b8c       0xfc build/default/production/_ext/1033058136/arp.o
                0x00409b8c                TCPIP_ARP_EntryRemoveNet

.text.TCPIP_Helper_StringToIPAddress%150
                0x00409c88       0xfc
 .text.TCPIP_Helper_StringToIPAddress
                0x00409c88       0xfc build/default/production/_ext/1033058136/tcpip_helpers.o
                0x00409c88                TCPIP_Helper_StringToIPAddress

.text.DRV_PIC32CGMAC_LibTxInit%151
                0x00409d84       0xf8
 .text.DRV_PIC32CGMAC_LibTxInit
                0x00409d84       0xf8 build/default/production/_ext/1546807373/drv_gmac_lib.o
                0x00409d84                DRV_PIC32CGMAC_LibTxInit

.text.TCPIP_TCP_Initialize%152
                0x00409e7c       0xf8
 .text.TCPIP_TCP_Initialize
                0x00409e7c       0xf8 build/default/production/_ext/1033058136/tcp.o
                0x00409e7c                TCPIP_TCP_Initialize

.text.DRV_PIC32CGMAC_LibTxAckPacket%153
                0x00409f74       0xf2
 .text.DRV_PIC32CGMAC_LibTxAckPacket
                0x00409f74       0xf2 build/default/production/_ext/1546807373/drv_gmac_lib.o
                0x00409f74                DRV_PIC32CGMAC_LibTxAckPacket

.text.__sinit.part.1%154
                0x0040a068       0xf0
 .text.__sinit.part.1
                0x0040a068       0xf0 d:/00_program_installation/microchip/xc32/v2.10/bin/bin/../../lib/gcc/pic32c/6.2.1/../../../../pic32c/lib/v7e-m/fpv5/hard\libc.a(lib_a-findfp.o)

.text._DRV_MIIM_StartOp%155
                0x0040a158       0xec
 .text._DRV_MIIM_StartOp
                0x0040a158       0xec build/default/production/_ext/438849557/drv_miim.o

.text.DRV_GMAC_EventMaskSet%156
                0x0040a244       0xec
 .text.DRV_GMAC_EventMaskSet
                0x0040a244       0xec build/default/production/_ext/1546807373/drv_gmac.o
                0x0040a244                DRV_GMAC_EventMaskSet

.text._ARPProbeAddress%157
                0x0040a330       0xec
 .text._ARPProbeAddress
                0x0040a330       0xec build/default/production/_ext/1033058136/arp.o

.text.TCPIP_UDP_ArrayGet%158
                0x0040a41c       0xec
 .text.TCPIP_UDP_ArrayGet
                0x0040a41c       0xec build/default/production/_ext/1033058136/udp.o
                0x0040a41c                TCPIP_UDP_ArrayGet

.text.DRV_GMAC_PacketRx%159
                0x0040a508       0xe8
 .text.DRV_GMAC_PacketRx
                0x0040a508       0xe8 build/default/production/_ext/1546807373/drv_gmac.o
                0x0040a508                DRV_GMAC_PacketRx

.text.DRV_PIC32CGMAC_LibRxBuffersAppend%160
                0x0040a5f0       0xe8
 .text.DRV_PIC32CGMAC_LibRxBuffersAppend
                0x0040a5f0       0xe8 build/default/production/_ext/1546807373/drv_gmac_lib.o
                0x0040a5f0                DRV_PIC32CGMAC_LibRxBuffersAppend

.text.TCPIP_TCP_ArrayGet%161
                0x0040a6d8       0xe8
 .text.TCPIP_TCP_ArrayGet
                0x0040a6d8       0xe8 build/default/production/_ext/1033058136/tcp.o
                0x0040a6d8                TCPIP_TCP_ArrayGet

.text._DRV_MIIM_ClientDeallocate%162
                0x0040a7c0       0xe0
 .text._DRV_MIIM_ClientDeallocate
                0x0040a7c0       0xe0 build/default/production/_ext/438849557/drv_miim.o

.text._DRV_ETHPHY_SetupPhaseReset%163
                0x0040a8a0       0xdc
 .text._DRV_ETHPHY_SetupPhaseReset
                0x0040a8a0       0xdc build/default/production/_ext/444070925/drv_ethphy.o

.text.DRV_EXTPHY_MDIXConfigure%164
                0x0040a97c       0xdc
 .text.DRV_EXTPHY_MDIXConfigure
                0x0040a97c       0xdc build/default/production/_ext/444070925/drv_extphy_smsc8740.o

.text%165       0x0040aa80       0xdc
 .text          0x0040aa80       0xdc d:/00_program_installation/microchip/xc32/v2.10/bin/bin/../../lib/gcc/pic32c/6.2.1/../../../../pic32c/lib/v7e-m/fpv5/hard\libc.a(lib_a-strlen.o)
                0x0040aa80                strlen

.text.DRV_PIC32CGMAC_LibRxInit%166
                0x0040ab5c       0xd8
 .text.DRV_PIC32CGMAC_LibRxInit
                0x0040ab5c       0xd8 build/default/production/_ext/1546807373/drv_gmac_lib.o
                0x0040ab5c                DRV_PIC32CGMAC_LibRxInit

.text._DRV_ETHPHY_NegResultPhase_ANAD%167
                0x0040ac34       0xd6
 .text._DRV_ETHPHY_NegResultPhase_ANAD
                0x0040ac34       0xd6 build/default/production/_ext/444070925/drv_ethphy.o

.text._TCPIP_HEAP_Malloc%168
                0x0040ad0a       0xd2
 .text._TCPIP_HEAP_Malloc
                0x0040ad0a       0xd2 build/default/production/_ext/1033058136/tcpip_heap_internal.o

.text.TCPIP_TCP_Bind%169
                0x0040addc       0xce
 .text.TCPIP_TCP_Bind
                0x0040addc       0xce build/default/production/_ext/1033058136/tcp.o
                0x0040addc                TCPIP_TCP_Bind

.text.BerkeleySocketInit%170
                0x0040aeac       0xcc
 .text.BerkeleySocketInit
                0x0040aeac       0xcc build/default/production/_ext/1033058136/berkeley_api.o
                0x0040aeac                BerkeleySocketInit

.text._GetMaxSegSizeOption%171
                0x0040af78       0xcc
 .text._GetMaxSegSizeOption
                0x0040af78       0xcc build/default/production/_ext/1033058136/tcp.o

.text.MPU_Initialize%172
                0x0040b044       0xc8
 .text.MPU_Initialize
                0x0040b044       0xc8 build/default/production/_ext/60175264/plib_mpu.o
                0x0040b044                MPU_Initialize

.text.DRV_ETHPHY_Setup%173
                0x0040b10c       0xc8
 .text.DRV_ETHPHY_Setup
                0x0040b10c       0xc8 build/default/production/_ext/444070925/drv_ethphy.o
                0x0040b10c                DRV_ETHPHY_Setup

.text.TIME_PLIB_Callback%174
                0x0040b1d4       0xc8
 .text.TIME_PLIB_Callback
                0x0040b1d4       0xc8 build/default/production/_ext/101884895/sys_time.o

.text.TCPIP_IPV4_SelectSourceInterface%175
                0x0040b29c       0xc8
 .text.TCPIP_IPV4_SelectSourceInterface
                0x0040b29c       0xc8 build/default/production/_ext/1033058136/ipv4.o
                0x0040b29c                TCPIP_IPV4_SelectSourceInterface

.text.TCPIP_UDP_OpenServerSkt%176
                0x0040b364       0xc8
 .text.TCPIP_UDP_OpenServerSkt
                0x0040b364       0xc8 build/default/production/_ext/1033058136/udp.o
                0x0040b364                TCPIP_UDP_OpenServerSkt

.text.__swsetup_r%177
                0x0040b42c       0xc8
 .text.__swsetup_r
                0x0040b42c       0xc8 d:/00_program_installation/microchip/xc32/v2.10/bin/bin/../../lib/gcc/pic32c/6.2.1/../../../../pic32c/lib/v7e-m/fpv5/hard\libc.a(lib_a-wsetup.o)
                0x0040b42c                __swsetup_r

.text.memmove%178
                0x0040b4f4       0xc8
 .text.memmove  0x0040b4f4       0xc8 d:/00_program_installation/microchip/xc32/v2.10/bin/bin/../../lib/gcc/pic32c/6.2.1/../../../../pic32c/lib/v7e-m/fpv5/hard\libc.a(lib_a-memmove.o)
                0x0040b4f4                memmove

.text.DRV_GMAC_Tasks%179
                0x0040b5bc       0xc4
 .text.DRV_GMAC_Tasks
                0x0040b5bc       0xc4 build/default/production/_ext/1546807373/drv_gmac.o
                0x0040b5bc                DRV_GMAC_Tasks

.text._DHCPProcessReceiveData%180
                0x0040b680       0xc4
 .text._DHCPProcessReceiveData
                0x0040b680       0xc4 build/default/production/_ext/1033058136/dhcp.o

.text.TCPIP_TCP_Deinitialize%181
                0x0040b744       0xc4
 .text.TCPIP_TCP_Deinitialize
                0x0040b744       0xc4 build/default/production/_ext/1033058136/tcp.o
                0x0040b744                TCPIP_TCP_Deinitialize

.text._DRV_PHY_SMITransferDo%182
                0x0040b808       0xc2
 .text._DRV_PHY_SMITransferDo
                0x0040b808       0xc2 build/default/production/_ext/444070925/drv_ethphy.o

.text.CLK_Initialize%183
                0x0040b8cc       0xc0
 .text.CLK_Initialize
                0x0040b8cc       0xc0 build/default/production/_ext/60165520/plib_clk.o
                0x0040b8cc                CLK_Initialize

.text.TCPIP_UDP_Initialize%184
                0x0040b98c       0xc0
 .text.TCPIP_UDP_Initialize
                0x0040b98c       0xc0 build/default/production/_ext/1033058136/udp.o
                0x0040b98c                TCPIP_UDP_Initialize

.text.DRV_EXTPHY_MIIConfigure%185
                0x0040ba4c       0xbc
 .text.DRV_EXTPHY_MIIConfigure
                0x0040ba4c       0xbc build/default/production/_ext/444070925/drv_extphy_smsc8740.o

.text._Tcpv4TxAckFnc%186
                0x0040bb08       0xbc
 .text._Tcpv4TxAckFnc
                0x0040bb08       0xbc build/default/production/_ext/1033058136/tcp.o

.text._DRV_ETHPHY_SetupPhaseIdle%187
                0x0040bbc4       0xb8
 .text._DRV_ETHPHY_SetupPhaseIdle
                0x0040bbc4       0xb8 build/default/production/_ext/444070925/drv_ethphy.o

.text.TCPIP_HEAP_CreateInternal%188
                0x0040bc7c       0xb8
 .text.TCPIP_HEAP_CreateInternal
                0x0040bc7c       0xb8 build/default/production/_ext/1033058136/tcpip_heap_internal.o
                0x0040bc7c                TCPIP_HEAP_CreateInternal

.text._TcpCloseSocket%189
                0x0040bd34       0xb6
 .text._TcpCloseSocket
                0x0040bd34       0xb6 build/default/production/_ext/1033058136/tcp.o

.text.TCPIP_TCP_OptionsGet%190
                0x0040bdea       0xb2
 .text.TCPIP_TCP_OptionsGet
                0x0040bdea       0xb2 build/default/production/_ext/1033058136/tcp.o
                0x0040bdea                TCPIP_TCP_OptionsGet

.text.DRV_GMAC_Tasks_ISR%191
                0x0040be9c       0xb0
 .text.DRV_GMAC_Tasks_ISR
                0x0040be9c       0xb0 build/default/production/_ext/1546807373/drv_gmac.o
                0x0040be9c                DRV_GMAC_Tasks_ISR

.text.NET_PRES_SocketClose%192
                0x0040bf4c       0xb0
 .text.NET_PRES_SocketClose
                0x0040bf4c       0xb0 build/default/production/_ext/718466696/net_pres.o
                0x0040bf4c                NET_PRES_SocketClose

.text._TcpSocketSetIdleState%193
                0x0040bffc       0xb0
 .text._TcpSocketSetIdleState
                0x0040bffc       0xb0 build/default/production/_ext/1033058136/tcp.o

.text._UDPv4TxAckFnc%194
                0x0040c0ac       0xb0
 .text._UDPv4TxAckFnc
                0x0040c0ac       0xb0 build/default/production/_ext/1033058136/udp.o

.text.__swbuf_r%195
                0x0040c15c       0xb0
 .text.__swbuf_r
                0x0040c15c       0xb0 d:/00_program_installation/microchip/xc32/v2.10/bin/bin/../../lib/gcc/pic32c/6.2.1/../../../../pic32c/lib/v7e-m/fpv5/hard\libc.a(lib_a-wbuf.o)
                0x0040c15c                __swbuf_r

.text.DRV_GMAC_PacketTx%196
                0x0040c20c       0xac
 .text.DRV_GMAC_PacketTx
                0x0040c20c       0xac build/default/production/_ext/1546807373/drv_gmac.o
                0x0040c20c                DRV_GMAC_PacketTx

.text.NET_PRES_Tasks%197
                0x0040c2b8       0xac
 .text.NET_PRES_Tasks
                0x0040c2b8       0xac build/default/production/_ext/718466696/net_pres.o
                0x0040c2b8                NET_PRES_Tasks

.text._TcpDisconnect%198
                0x0040c364       0xaa
 .text._TcpDisconnect
                0x0040c364       0xaa build/default/production/_ext/1033058136/tcp.o

.text.TCPIP_TCP_ServerOpen%199
                0x0040c410       0xa8
 .text.TCPIP_TCP_ServerOpen
                0x0040c410       0xa8 build/default/production/_ext/1033058136/tcp.o
                0x0040c410                TCPIP_TCP_ServerOpen

.text.TCPIP_UDP_RemoteBind%200
                0x0040c4b8       0xa6
 .text.TCPIP_UDP_RemoteBind
                0x0040c4b8       0xa6 build/default/production/_ext/1033058136/udp.o
                0x0040c4b8                TCPIP_UDP_RemoteBind

.text.DRV_MIIM_Setup%201
                0x0040c560       0xa4
 .text.DRV_MIIM_Setup
                0x0040c560       0xa4 build/default/production/_ext/438849557/drv_miim.o
                0x0040c560                DRV_MIIM_Setup

.text.DRV_MIIM_OperationResult%202
                0x0040c604       0xa4
 .text.DRV_MIIM_OperationResult
                0x0040c604       0xa4 build/default/production/_ext/438849557/drv_miim.o
                0x0040c604                DRV_MIIM_OperationResult

.text._ARPSendIfPkt%203
                0x0040c6a8       0xa4
 .text._ARPSendIfPkt
                0x0040c6a8       0xa4 build/default/production/_ext/1033058136/arp.o

.text.__register_exitproc%204
                0x0040c74c       0xa4
 .text.__register_exitproc
                0x0040c74c       0xa4 d:/00_program_installation/microchip/xc32/v2.10/bin/bin/../../lib/gcc/pic32c/6.2.1/../../../../pic32c/lib/v7e-m/fpv5/hard\libc.a(lib_a-__atexit.o)
                0x0040c74c                __register_exitproc

.text._DRV_ETHPHY_SetupPhaseNegotiate_SubPhase3%205
                0x0040c7f0       0xa0
 .text._DRV_ETHPHY_SetupPhaseNegotiate_SubPhase3
                0x0040c7f0       0xa0 build/default/production/_ext/444070925/drv_ethphy.o

.text._DRV_ETHPHY_NegCompletePhaseAN_Restart%206
                0x0040c890       0xa0
 .text._DRV_ETHPHY_NegCompletePhaseAN_Restart
                0x0040c890       0xa0 build/default/production/_ext/444070925/drv_ethphy.o

.text.NET_PRES_SocketDisconnect%207
                0x0040c930       0xa0
 .text.NET_PRES_SocketDisconnect
                0x0040c930       0xa0 build/default/production/_ext/718466696/net_pres.o
                0x0040c930                NET_PRES_SocketDisconnect

.text._ARPDeleteResources%208
                0x0040c9d0       0xa0
 .text._ARPDeleteResources
                0x0040c9d0       0xa0 build/default/production/_ext/1033058136/arp.o

.text.TCPIP_STACK_KillStack%209
                0x0040ca70       0xa0
 .text.TCPIP_STACK_KillStack
                0x0040ca70       0xa0 build/default/production/_ext/1033058136/tcpip_manager.o

.text._UDPv4AllocateSktTxBuffer%210
                0x0040cb10       0xa0
 .text._UDPv4AllocateSktTxBuffer
                0x0040cb10       0xa0 build/default/production/_ext/1033058136/udp.o

.text%211       0x0040cbb0       0xa0
 .text          0x0040cbb0       0xa0 d:/00_program_installation/microchip/xc32/v2.10/bin/bin/../../lib/gcc/pic32c/6.2.1/../../../../pic32c/lib/v7e-m/fpv5/hard\libc.a(lib_a-memchr.o)
                0x0040cbb0                memchr

.text.__fputwc%212
                0x0040cc50       0xa0
 .text.__fputwc
                0x0040cc50       0xa0 d:/00_program_installation/microchip/xc32/v2.10/bin/bin/../../lib/gcc/pic32c/6.2.1/../../../../pic32c/lib/v7e-m/fpv5/hard\libc.a(lib_a-fputwc.o)
                0x0040cc50                __fputwc

.text._DRV_ETHPHY_SetupPhaseNegotiate_SubPhase0%213
                0x0040ccf0       0x9e
 .text._DRV_ETHPHY_SetupPhaseNegotiate_SubPhase0
                0x0040ccf0       0x9e build/default/production/_ext/444070925/drv_ethphy.o

.text.TCPIP_UDP_Disconnect%214
                0x0040cd8e       0x9c
 .text.TCPIP_UDP_Disconnect
                0x0040cd8e       0x9c build/default/production/_ext/1033058136/udp.o
                0x0040cd8e                TCPIP_UDP_Disconnect

.text.memset%215
                0x0040ce2c       0x9c
 .text.memset   0x0040ce2c       0x9c d:/00_program_installation/microchip/xc32/v2.10/bin/bin/../../lib/gcc/pic32c/6.2.1/../../../../pic32c/lib/v7e-m/fpv5/hard\libc.a(lib_a-memset.o)
                0x0040ce2c                memset

.text.SYS_TIME_TimerCreate%216
                0x0040cec8       0x98
 .text.SYS_TIME_TimerCreate
                0x0040cec8       0x98 build/default/production/_ext/101884895/sys_time.o
                0x0040cec8                SYS_TIME_TimerCreate

.text.TCPIP_IPV4_ArpHandler%217
                0x0040cf60       0x98
 .text.TCPIP_IPV4_ArpHandler
                0x0040cf60       0x98 build/default/production/_ext/1033058136/ipv4.o

.text._UDPsetPacketInfo%218
                0x0040cff8       0x94
 .text._UDPsetPacketInfo
                0x0040cff8       0x94 build/default/production/_ext/1033058136/udp.o

.text.__pic32c_data_initialization%219
                0x0040d08c       0x94
 .text.__pic32c_data_initialization
                0x0040d08c       0x94 d:/00_program_installation/microchip/xc32/v2.10/bin/bin/../../lib/gcc/pic32c/6.2.1/../../../../pic32c/lib/v7e-m/fpv5/hard\libpic32c.a(data_init.o)
                0x0040d08c                __pic32c_data_initialization

.text._malloc_trim_r%220
                0x0040d120       0x94
 .text._malloc_trim_r
                0x0040d120       0x94 d:/00_program_installation/microchip/xc32/v2.10/bin/bin/../../lib/gcc/pic32c/6.2.1/../../../../pic32c/lib/v7e-m/fpv5/hard\libc.a(lib_a-freer.o)
                0x0040d120                _malloc_trim_r

.text._DHCPEnable%221
                0x0040d1b4       0x90
 .text._DHCPEnable
                0x0040d1b4       0x90 build/default/production/_ext/1033058136/dhcp.o

.text.TCPIP_ARP_IsResolved%222
                0x0040d244       0x8c
 .text.TCPIP_ARP_IsResolved
                0x0040d244       0x8c build/default/production/_ext/1033058136/arp.o
                0x0040d244                TCPIP_ARP_IsResolved

.text._DHCPSetLeaseTimeParams%223
                0x0040d2d0       0x8c
 .text._DHCPSetLeaseTimeParams
                0x0040d2d0       0x8c build/default/production/_ext/1033058136/dhcp.o

.text._DRV_ETHPHY_ResetPhaseRead%224
                0x0040d35c       0x88
 .text._DRV_ETHPHY_ResetPhaseRead
                0x0040d35c       0x88 build/default/production/_ext/444070925/drv_ethphy.o

.text._DHCPPacketFilter%225
                0x0040d3e4       0x88
 .text._DHCPPacketFilter
                0x0040d3e4       0x88 build/default/production/_ext/1033058136/dhcp.o

.text.TCPIP_IPV4_DeInitialize%226
                0x0040d46c       0x88
 .text.TCPIP_IPV4_DeInitialize
                0x0040d46c       0x88 build/default/production/_ext/1033058136/ipv4.o
                0x0040d46c                TCPIP_IPV4_DeInitialize

.text._OAHashFindBkt%227
                0x0040d4f4       0x88
 .text._OAHashFindBkt
                0x0040d4f4       0x88 build/default/production/_ext/1033058136/oahash.o

.text.__smakebuf_r%228
                0x0040d57c       0x88
 .text.__smakebuf_r
                0x0040d57c       0x88 d:/00_program_installation/microchip/xc32/v2.10/bin/bin/../../lib/gcc/pic32c/6.2.1/../../../../pic32c/lib/v7e-m/fpv5/hard\libc.a(lib_a-makebuf.o)
                0x0040d57c                __smakebuf_r

.text.DRV_MIIM_Open%229
                0x0040d604       0x84
 .text.DRV_MIIM_Open
                0x0040d604       0x84 build/default/production/_ext/438849557/drv_miim.o
                0x0040d604                DRV_MIIM_Open

.text.DRV_PIC32CGMAC_LibInit%230
                0x0040d688       0x84
 .text.DRV_PIC32CGMAC_LibInit
                0x0040d688       0x84 build/default/production/_ext/1546807373/drv_gmac_lib.o
                0x0040d688                DRV_PIC32CGMAC_LibInit

.text._MacTxDiscardQueues%231
                0x0040d70c       0x82
 .text._MacTxDiscardQueues
                0x0040d70c       0x82 build/default/production/_ext/1546807373/drv_gmac.o

.text.DRV_PIC32CGMAC_LibInitTransfer%232
                0x0040d790       0x80
 .text.DRV_PIC32CGMAC_LibInitTransfer
                0x0040d790       0x80 build/default/production/_ext/1546807373/drv_gmac_lib.o
                0x0040d790                DRV_PIC32CGMAC_LibInitTransfer

.text.timer_addToList%233
                0x0040d810       0x80
 .text.timer_addToList
                0x0040d810       0x80 build/default/production/_ext/101884895/sys_time.o

.text.BerkeleySocketDeInit%234
                0x0040d890       0x80
 .text.BerkeleySocketDeInit
                0x0040d890       0x80 build/default/production/_ext/1033058136/berkeley_api.o
                0x0040d890                BerkeleySocketDeInit

.text._DHCPClientClose%235
                0x0040d910       0x80
 .text._DHCPClientClose
                0x0040d910       0x80 build/default/production/_ext/1033058136/dhcp.o

.text.TCPIP_Helper_PacketChecksum%236
                0x0040d990       0x80
 .text.TCPIP_Helper_PacketChecksum
                0x0040d990       0x80 build/default/production/_ext/1033058136/tcpip_helpers.o
                0x0040d990                TCPIP_Helper_PacketChecksum

.text.__sprint_r.part.0%237
                0x0040da10       0x80
 .text.__sprint_r.part.0
                0x0040da10       0x80 d:/00_program_installation/microchip/xc32/v2.10/bin/bin/../../lib/gcc/pic32c/6.2.1/../../../../pic32c/lib/v7e-m/fpv5/hard\libc.a(lib_a-vfiprintf.o)

.text._fclose_r%238
                0x0040da90       0x80
 .text._fclose_r
                0x0040da90       0x80 d:/00_program_installation/microchip/xc32/v2.10/bin/bin/../../lib/gcc/pic32c/6.2.1/../../../../pic32c/lib/v7e-m/fpv5/hard\libc.a(lib_a-fclose.o)
                0x0040da90                _fclose_r

.rodata.DRV_ETHPHY_OBJECT_BASE_Default%239
                0x0040db10       0x7c
 .rodata.DRV_ETHPHY_OBJECT_BASE_Default
                0x0040db10       0x7c build/default/production/_ext/444070925/drv_ethphy.o
                0x0040db10                DRV_ETHPHY_OBJECT_BASE_Default

.text.TCPIP_Helper_StringToMACAddress%240
                0x0040db8c       0x7a
 .text.TCPIP_Helper_StringToMACAddress
                0x0040db8c       0x7a build/default/production/_ext/1033058136/tcpip_helpers.o
                0x0040db8c                TCPIP_Helper_StringToMACAddress

.text._DRV_ETHPHY_NegCompletePhaseRead2%241
                0x0040dc08       0x78
 .text._DRV_ETHPHY_NegCompletePhaseRead2
                0x0040dc08       0x78 build/default/production/_ext/444070925/drv_ethphy.o

.text._MacTxPendingPackets%242
                0x0040dc80       0x78
 .text._MacTxPendingPackets
                0x0040dc80       0x78 build/default/production/_ext/1546807373/drv_gmac.o

.text._DHCPCleanup%243
                0x0040dcf8       0x78
 .text._DHCPCleanup
                0x0040dcf8       0x78 build/default/production/_ext/1033058136/dhcp.o

.text._DNS_ValidateIf%244
                0x0040dd70       0x78
 .text._DNS_ValidateIf
                0x0040dd70       0x78 build/default/production/_ext/1033058136/dns.o

.text._DRV_GMAC_LinkStateNegResult%245
                0x0040dde8       0x76
 .text._DRV_GMAC_LinkStateNegResult
                0x0040dde8       0x76 build/default/production/_ext/1546807373/drv_gmac.o

.text._DRV_ETHPHY_NegResultPhase_BMSTAT%246
                0x0040de5e       0x74
 .text._DRV_ETHPHY_NegResultPhase_BMSTAT
                0x0040de5e       0x74 build/default/production/_ext/444070925/drv_ethphy.o

.text.DRV_GMAC_EventAcknowledge%247
                0x0040ded4       0x74
 .text.DRV_GMAC_EventAcknowledge
                0x0040ded4       0x74 build/default/production/_ext/1546807373/drv_gmac.o
                0x0040ded4                DRV_GMAC_EventAcknowledge

.text.DRV_PIC32CGMAC_LibMACOpen%248
                0x0040df48       0x74
 .text.DRV_PIC32CGMAC_LibMACOpen
                0x0040df48       0x74 build/default/production/_ext/1546807373/drv_gmac_lib.o
                0x0040df48                DRV_PIC32CGMAC_LibMACOpen

.text.timer_removeFromList%249
                0x0040dfbc       0x74
 .text.timer_removeFromList
                0x0040dfbc       0x74 build/default/production/_ext/101884895/sys_time.o

.text._ARPUpdateEntry%250
                0x0040e030       0x74
 .text._ARPUpdateEntry
                0x0040e030       0x74 build/default/production/_ext/1033058136/arp.o

.text.TCPIP_ARP_EntryRemove%251
                0x0040e0a4       0x74
 .text.TCPIP_ARP_EntryRemove
                0x0040e0a4       0x74 build/default/production/_ext/1033058136/arp.o
                0x0040e0a4                TCPIP_ARP_EntryRemove

.text.TCPIP_DHCP_ConnectionHandler%252
                0x0040e118       0x74
 .text.TCPIP_DHCP_ConnectionHandler
                0x0040e118       0x74 build/default/production/_ext/1033058136/dhcp.o
                0x0040e118                TCPIP_DHCP_ConnectionHandler

.text.TCPIP_STACK_BringNetDown%253
                0x0040e18c       0x74
 .text.TCPIP_STACK_BringNetDown
                0x0040e18c       0x74 build/default/production/_ext/1033058136/tcpip_manager.o

.text._TCPIP_PKT_PacketAlloc%254
                0x0040e200       0x74
 .text._TCPIP_PKT_PacketAlloc
                0x0040e200       0x74 build/default/production/_ext/1033058136/tcpip_packet.o
                0x0040e200                _TCPIP_PKT_PacketAlloc

.text.TCPIP_PKT_DataSegmentGet%255
                0x0040e274       0x72
 .text.TCPIP_PKT_DataSegmentGet
                0x0040e274       0x72 build/default/production/_ext/1033058136/tcpip_packet.o
                0x0040e274                TCPIP_PKT_DataSegmentGet

.text.DRV_ETHPHY_Open%256
                0x0040e2e8       0x70
 .text.DRV_ETHPHY_Open
                0x0040e2e8       0x70 build/default/production/_ext/444070925/drv_ethphy.o
                0x0040e2e8                DRV_ETHPHY_Open

.text._DRV_ETHPHY_ResetPhaseWrite%257
                0x0040e358       0x70
 .text._DRV_ETHPHY_ResetPhaseWrite
                0x0040e358       0x70 build/default/production/_ext/444070925/drv_ethphy.o

.text.DRV_MIIM_Initialize%258
                0x0040e3c8       0x70
 .text.DRV_MIIM_Initialize
                0x0040e3c8       0x70 build/default/production/_ext/438849557/drv_miim.o
                0x0040e3c8                DRV_MIIM_Initialize

.text.DRV_GMAC_LibDescriptorsPoolAdd%259
                0x0040e438       0x70
 .text.DRV_GMAC_LibDescriptorsPoolAdd
                0x0040e438       0x70 build/default/production/_ext/1546807373/drv_gmac_lib.o
                0x0040e438                DRV_GMAC_LibDescriptorsPoolAdd

.text.SYS_TIME_Initialize%260
                0x0040e4a8       0x70
 .text.SYS_TIME_Initialize
                0x0040e4a8       0x70 build/default/production/_ext/101884895/sys_time.o
                0x0040e4a8                SYS_TIME_Initialize

.text.TCPIP_IPV4_Initialize%261
                0x0040e518       0x70
 .text.TCPIP_IPV4_Initialize
                0x0040e518       0x70 build/default/production/_ext/1033058136/ipv4.o
                0x0040e518                TCPIP_IPV4_Initialize

.text._TCPIPStackModuleRxPurge%262
                0x0040e588       0x70
 .text._TCPIPStackModuleRxPurge
                0x0040e588       0x70 build/default/production/_ext/1033058136/tcpip_manager.o
                0x0040e588                _TCPIPStackModuleRxPurge

.text.TCPIP_TCP_SocketInfoGet%263
                0x0040e5f8       0x6e
 .text.TCPIP_TCP_SocketInfoGet
                0x0040e5f8       0x6e build/default/production/_ext/1033058136/tcp.o
                0x0040e5f8                TCPIP_TCP_SocketInfoGet

.text%264       0x0040e668       0x6c
 .text          0x0040e668       0x6c d:/00_program_installation/microchip/xc32/v2.10/bin/bin/../../lib/gcc/pic32c/6.2.1/v7e-m/fpv5/hard/crtbegin.o

.text.TCPIP_BSD_Task%265
                0x0040e6d4       0x6c
 .text.TCPIP_BSD_Task
                0x0040e6d4       0x6c build/default/production/_ext/1033058136/berkeley_api.o
                0x0040e6d4                TCPIP_BSD_Task

.text._TcpCleanup%266
                0x0040e740       0x6c
 .text._TcpCleanup
                0x0040e740       0x6c build/default/production/_ext/1033058136/tcp.o

.text.__sbprintf%267
                0x0040e7ac       0x6c
 .text.__sbprintf
                0x0040e7ac       0x6c d:/00_program_installation/microchip/xc32/v2.10/bin/bin/../../lib/gcc/pic32c/6.2.1/../../../../pic32c/lib/v7e-m/fpv5/hard\libc.a(vfprintf.cdnopsuxX.o)

.text._DNS_AddSelectionIf%268
                0x0040e818       0x6a
 .text._DNS_AddSelectionIf
                0x0040e818       0x6a build/default/production/_ext/1033058136/dns.o

.text.TCPIP_Helper_PacketCopy%269
                0x0040e882       0x6a
 .text.TCPIP_Helper_PacketCopy
                0x0040e882       0x6a build/default/production/_ext/1033058136/tcpip_helpers.o
                0x0040e882                TCPIP_Helper_PacketCopy

.text.SYS_Initialize%270
                0x0040e8ec       0x68
 .text.SYS_Initialize
                0x0040e8ec       0x68 build/default/production/_ext/1171490990/initialization.o
                0x0040e8ec                SYS_Initialize

.rodata%271     0x0040e954       0x68
 .rodata        0x0040e954       0x68 build/default/production/_ext/1171490990/initialization.o

.text._DRV_GMAC_LinkStateWaitLinkUp%272
                0x0040e9bc       0x68
 .text._DRV_GMAC_LinkStateWaitLinkUp
                0x0040e9bc       0x68 build/default/production/_ext/1546807373/drv_gmac.o

.text.TCPIP_OAHASH_EntryLookup%273
                0x0040ea24       0x68
 .text.TCPIP_OAHASH_EntryLookup
                0x0040ea24       0x68 build/default/production/_ext/1033058136/oahash.o
                0x0040ea24                TCPIP_OAHASH_EntryLookup

.text.TCPIP_OAHASH_EntryLookupOrInsert%274
                0x0040ea8c       0x68
 .text.TCPIP_OAHASH_EntryLookupOrInsert
                0x0040ea8c       0x68 build/default/production/_ext/1033058136/oahash.o
                0x0040ea8c                TCPIP_OAHASH_EntryLookupOrInsert

.text._TcpSwapHeader%275
                0x0040eaf4       0x68
 .text._TcpSwapHeader
                0x0040eaf4       0x68 build/default/production/_ext/1033058136/tcp.o

.text._TcpClientSocketConnect%276
                0x0040eb5c       0x68
 .text._TcpClientSocketConnect
                0x0040eb5c       0x68 build/default/production/_ext/1033058136/tcp.o

.text.TCPIP_Helper_CalcIPChecksum%277
                0x0040ebc4       0x66
 .text.TCPIP_Helper_CalcIPChecksum
                0x0040ebc4       0x66 build/default/production/_ext/1033058136/tcpip_helpers.o
                0x0040ebc4                TCPIP_Helper_CalcIPChecksum

.text._DRV_ETHPHY_SetupPhaseNegotiate_SubPhase6%278
                0x0040ec2a       0x64
 .text._DRV_ETHPHY_SetupPhaseNegotiate_SubPhase6
                0x0040ec2a       0x64 build/default/production/_ext/444070925/drv_ethphy.o

.text._TCPIPStackInsertRxPacket%279
                0x0040ec90       0x64
 .text._TCPIPStackInsertRxPacket
                0x0040ec90       0x64 build/default/production/_ext/1033058136/tcpip_manager.o
                0x0040ec90                _TCPIPStackInsertRxPacket

.text.strncpy%280
                0x0040ecf4       0x64
 .text.strncpy  0x0040ecf4       0x64 d:/00_program_installation/microchip/xc32/v2.10/bin/bin/../../lib/gcc/pic32c/6.2.1/../../../../pic32c/lib/v7e-m/fpv5/hard\libc.a(lib_a-strncpy.o)
                0x0040ecf4                strncpy

.text.TCPIP_ARP_EntryGet%281
                0x0040ed58       0x62
 .text.TCPIP_ARP_EntryGet
                0x0040ed58       0x62 build/default/production/_ext/1033058136/arp.o
                0x0040ed58                TCPIP_ARP_EntryGet

.text._TCPIP_StackSyncFunction%282
                0x0040edba       0x62
 .text._TCPIP_StackSyncFunction
                0x0040edba       0x62 build/default/production/_ext/1033058136/tcpip_manager.o

.text.TCPIP_TCP_ArrayPeek%283
                0x0040ee1c       0x62
 .text.TCPIP_TCP_ArrayPeek
                0x0040ee1c       0x62 build/default/production/_ext/1033058136/tcp.o
                0x0040ee1c                TCPIP_TCP_ArrayPeek

.text.TCPIP_DNS_ClientDeinitialize%284
                0x0040ee80       0x60
 .text.TCPIP_DNS_ClientDeinitialize
                0x0040ee80       0x60 build/default/production/_ext/1033058136/dns.o
                0x0040ee80                TCPIP_DNS_ClientDeinitialize

.text.TCPIP_UDP_SocketInfoGet%285
                0x0040eee0       0x60
 .text.TCPIP_UDP_SocketInfoGet
                0x0040eee0       0x60 build/default/production/_ext/1033058136/udp.o
                0x0040eee0                TCPIP_UDP_SocketInfoGet

.text._calloc_r%286
                0x0040ef40       0x60
 .text._calloc_r
                0x0040ef40       0x60 d:/00_program_installation/microchip/xc32/v2.10/bin/bin/../../lib/gcc/pic32c/6.2.1/../../../../pic32c/lib/v7e-m/fpv5/hard\libc.a(lib_a-callocr.o)
                0x0040ef40                _calloc_r

.text.memcmp%287
                0x0040efa0       0x60
 .text.memcmp   0x0040efa0       0x60 d:/00_program_installation/microchip/xc32/v2.10/bin/bin/../../lib/gcc/pic32c/6.2.1/../../../../pic32c/lib/v7e-m/fpv5/hard\libc.a(lib_a-memcmp.o)
                0x0040efa0                memcmp

.text.DRV_ETHPHY_Initialize%288
                0x0040f000       0x5c
 .text.DRV_ETHPHY_Initialize
                0x0040f000       0x5c build/default/production/_ext/444070925/drv_ethphy.o
                0x0040f000                DRV_ETHPHY_Initialize

.text.SYS_TIME_TimerDestroy%289
                0x0040f05c       0x5c
 .text.SYS_TIME_TimerDestroy
                0x0040f05c       0x5c build/default/production/_ext/101884895/sys_time.o
                0x0040f05c                SYS_TIME_TimerDestroy

.text._TCPIP_HEAP_MaxSize%290
                0x0040f0b8       0x5c
 .text._TCPIP_HEAP_MaxSize
                0x0040f0b8       0x5c build/default/production/_ext/1033058136/tcpip_heap_internal.o

.text._TCPIPStackIpAddFromAnyNet%291
                0x0040f114       0x5c
 .text._TCPIPStackIpAddFromAnyNet
                0x0040f114       0x5c build/default/production/_ext/1033058136/tcpip_manager.o
                0x0040f114                _TCPIPStackIpAddFromAnyNet

.text.__swhatbuf_r%292
                0x0040f170       0x5c
 .text.__swhatbuf_r
                0x0040f170       0x5c d:/00_program_installation/microchip/xc32/v2.10/bin/bin/../../lib/gcc/pic32c/6.2.1/../../../../pic32c/lib/v7e-m/fpv5/hard\libc.a(lib_a-makebuf.o)
                0x0040f170                __swhatbuf_r

.text._DHCPOptionProcessDns%293
                0x0040f1cc       0x5a
 .text._DHCPOptionProcessDns
                0x0040f1cc       0x5a build/default/production/_ext/1033058136/dhcp.o

.text.TCPIP_UDP_BcastIPV4AddressSet%294
                0x0040f226       0x5a
 .text.TCPIP_UDP_BcastIPV4AddressSet
                0x0040f226       0x5a build/default/production/_ext/1033058136/udp.o
                0x0040f226                TCPIP_UDP_BcastIPV4AddressSet

.text.DRV_ETHPHY_VendorSMIReadStart%295
                0x0040f280       0x58
 .text.DRV_ETHPHY_VendorSMIReadStart
                0x0040f280       0x58 build/default/production/_ext/444070925/drv_ethphy.o
                0x0040f280                DRV_ETHPHY_VendorSMIReadStart

.text.DRV_ETHPHY_VendorSMIWriteStart%296
                0x0040f2d8       0x58
 .text.DRV_ETHPHY_VendorSMIWriteStart
                0x0040f2d8       0x58 build/default/production/_ext/444070925/drv_ethphy.o
                0x0040f2d8                DRV_ETHPHY_VendorSMIWriteStart

.text._DRV_MIIM_ReleaseOpDcpt%297
                0x0040f330       0x58
 .text._DRV_MIIM_ReleaseOpDcpt
                0x0040f330       0x58 build/default/production/_ext/438849557/drv_miim.o

.text.DRV_GMAC_ParametersGet%298
                0x0040f388       0x58
 .text.DRV_GMAC_ParametersGet
                0x0040f388       0x58 build/default/production/_ext/1546807373/drv_gmac.o
                0x0040f388                DRV_GMAC_ParametersGet

.rodata.DRV_GMAC_Object%299
                0x0040f3e0       0x58
 .rodata.DRV_GMAC_Object
                0x0040f3e0       0x58 build/default/production/_ext/1546807373/drv_gmac.o
                0x0040f3e0                DRV_GMAC_Object

.text._DNS_Enable%300
                0x0040f438       0x58
 .text._DNS_Enable
                0x0040f438       0x58 build/default/production/_ext/1033058136/dns.o

.text._TCPIPStackAnyNetLinked%301
                0x0040f490       0x58
 .text._TCPIPStackAnyNetLinked
                0x0040f490       0x58 build/default/production/_ext/1033058136/tcpip_manager.o
                0x0040f490                _TCPIPStackAnyNetLinked

.text._DRV_ETHPHY_LinkStatPhaseRead%302
                0x0040f4e8       0x56
 .text._DRV_ETHPHY_LinkStatPhaseRead
                0x0040f4e8       0x56 build/default/production/_ext/444070925/drv_ethphy.o

.text.DRV_GMAC_StatisticsGet%303
                0x0040f53e       0x56
 .text.DRV_GMAC_StatisticsGet
                0x0040f53e       0x56 build/default/production/_ext/1546807373/drv_gmac.o
                0x0040f53e                DRV_GMAC_StatisticsGet

.text.TCPIP_ARP_Probe%304
                0x0040f594       0x56
 .text.TCPIP_ARP_Probe
                0x0040f594       0x56 build/default/production/_ext/1033058136/arp.o
                0x0040f594                TCPIP_ARP_Probe

.rodata.netPresTransObject0DC%305
                0x0040f5ec       0x54
 .rodata.netPresTransObject0DC
                0x0040f5ec       0x54 build/default/production/_ext/1171490990/initialization.o

.rodata.netPresTransObject0DS%306
                0x0040f640       0x54
 .rodata.netPresTransObject0DS
                0x0040f640       0x54 build/default/production/_ext/1171490990/initialization.o

.rodata.netPresTransObject0SC%307
                0x0040f694       0x54
 .rodata.netPresTransObject0SC
                0x0040f694       0x54 build/default/production/_ext/1171490990/initialization.o

.rodata.netPresTransObject0SS%308
                0x0040f6e8       0x54
 .rodata.netPresTransObject0SS
                0x0040f6e8       0x54 build/default/production/_ext/1171490990/initialization.o

.rodata.tcpipMACPIC32CINTInitData%309
                0x0040f73c       0x54
 .rodata.tcpipMACPIC32CINTInitData
                0x0040f73c       0x54 build/default/production/_ext/1171490990/initialization.o
                0x0040f73c                tcpipMACPIC32CINTInitData

.text.PIO_Initialize%310
                0x0040f790       0x54
 .text.PIO_Initialize
                0x0040f790       0x54 build/default/production/_ext/60177924/plib_pio.o
                0x0040f790                PIO_Initialize

.text._DRV_ETHPHY_NegCompletePhaseAN_Complete%311
                0x0040f7e4       0x54
 .text._DRV_ETHPHY_NegCompletePhaseAN_Complete
                0x0040f7e4       0x54 build/default/production/_ext/444070925/drv_ethphy.o

.text.DRV_MIIM_OperationAbort%312
                0x0040f838       0x54
 .text.DRV_MIIM_OperationAbort
                0x0040f838       0x54 build/default/production/_ext/438849557/drv_miim.o
                0x0040f838                DRV_MIIM_OperationAbort

.text._ARPNotifyClients%313
                0x0040f88c       0x54
 .text._ARPNotifyClients
                0x0040f88c       0x54 build/default/production/_ext/1033058136/arp.o

.text._DHCPOptionWriteSrvIdent%314
                0x0040f8e0       0x54
 .text._DHCPOptionWriteSrvIdent
                0x0040f8e0       0x54 build/default/production/_ext/1033058136/dhcp.o

.text._DNS_DeleteHash%315
                0x0040f934       0x54
 .text._DNS_DeleteHash
                0x0040f934       0x54 build/default/production/_ext/1033058136/dns.o

.rodata.TCPIP_STACK_MODULE_ENTRY_TBL%316
                0x0040f988       0x54
 .rodata.TCPIP_STACK_MODULE_ENTRY_TBL
                0x0040f988       0x54 build/default/production/_ext/1033058136/tcpip_manager.o

.text._fwalk_reent%317
                0x0040f9dc       0x54
 .text._fwalk_reent
                0x0040f9dc       0x54 d:/00_program_installation/microchip/xc32/v2.10/bin/bin/../../lib/gcc/pic32c/6.2.1/../../../../pic32c/lib/v7e-m/fpv5/hard\libc.a(lib_a-fwalk.o)
                0x0040f9dc                _fwalk_reent

.text._wcrtomb_r%318
                0x0040fa30       0x54
 .text._wcrtomb_r
                0x0040fa30       0x54 d:/00_program_installation/microchip/xc32/v2.10/bin/bin/../../lib/gcc/pic32c/6.2.1/../../../../pic32c/lib/v7e-m/fpv5/hard\libc.a(lib_a-wcrtomb.o)
                0x0040fa30                _wcrtomb_r

.text._TcpAbort%319
                0x0040fa84       0x52
 .text._TcpAbort
                0x0040fa84       0x52 build/default/production/_ext/1033058136/tcp.o

.text.TCPIP_UDP_PutIsReady%320
                0x0040fad6       0x52
 .text.TCPIP_UDP_PutIsReady
                0x0040fad6       0x52 build/default/production/_ext/1033058136/udp.o
                0x0040fad6                TCPIP_UDP_PutIsReady

.text._DRV_MIIM_GetClientAndLock%321
                0x0040fb28       0x50
 .text._DRV_MIIM_GetClientAndLock
                0x0040fb28       0x50 build/default/production/_ext/438849557/drv_miim.o

.text._DHCPOptionWriteIPRequest%322
                0x0040fb78       0x50
 .text._DHCPOptionWriteIPRequest
                0x0040fb78       0x50 build/default/production/_ext/1033058136/dhcp.o

.text.TCPIP_DNS_OAHASH_DeleteEntry%323
                0x0040fbc8       0x50
 .text.TCPIP_DNS_OAHASH_DeleteEntry
                0x0040fbc8       0x50 build/default/production/_ext/1033058136/dns.o

.text._TCPIPStackModuleSignalRequest%324
                0x0040fc18       0x50
 .text._TCPIPStackModuleSignalRequest
                0x0040fc18       0x50 build/default/production/_ext/1033058136/tcpip_manager.o
                0x0040fc18                _TCPIPStackModuleSignalRequest

.text.__libc_init_array%325
                0x0040fc68       0x50
 .text.__libc_init_array
                0x0040fc68       0x50 d:/00_program_installation/microchip/xc32/v2.10/bin/bin/../../lib/gcc/pic32c/6.2.1/../../../../pic32c/lib/v7e-m/fpv5/hard\libc.a(lib_a-init.o)
                0x0040fc68                __libc_init_array

.text._vsnprintf_cdnopsuxX%326
                0x0040fcb8       0x50
 .text._vsnprintf_cdnopsuxX
                0x0040fcb8       0x50 d:/00_program_installation/microchip/xc32/v2.10/bin/bin/../../lib/gcc/pic32c/6.2.1/../../../../pic32c/lib/v7e-m/fpv5/hard\libc.a(vsnprintf.cdnopsuxX.o)
                0x0040fcb8                _vsnprintf_cdnopsuxX

.text.TCPIP_Helper_FormatNetBIOSName%327
                0x0040fd08       0x4e
 .text.TCPIP_Helper_FormatNetBIOSName
                0x0040fd08       0x4e build/default/production/_ext/1033058136/tcpip_helpers.o
                0x0040fd08                TCPIP_Helper_FormatNetBIOSName

.text.TCPIP_TCP_DestinationIPAddressSet%328
                0x0040fd56       0x4e
 .text.TCPIP_TCP_DestinationIPAddressSet
                0x0040fd56       0x4e build/default/production/_ext/1033058136/tcp.o
                0x0040fd56                TCPIP_TCP_DestinationIPAddressSet

.text.TCPIP_TCP_RemoteBind%329
                0x0040fda4       0x4e
 .text.TCPIP_TCP_RemoteBind
                0x0040fda4       0x4e build/default/production/_ext/1033058136/tcp.o
                0x0040fda4                TCPIP_TCP_RemoteBind

.text._DRV_GMAC_LinkStateGetLink%330
                0x0040fdf2       0x4c
 .text._DRV_GMAC_LinkStateGetLink
                0x0040fdf2       0x4c build/default/production/_ext/1546807373/drv_gmac.o

.text.TCPIP_IPV4_Cleanup%331
                0x0040fe40       0x4c
 .text.TCPIP_IPV4_Cleanup
                0x0040fe40       0x4c build/default/production/_ext/1033058136/ipv4.o

.text._TCPIP_MacEventCB%332
                0x0040fe8c       0x4c
 .text._TCPIP_MacEventCB
                0x0040fe8c       0x4c build/default/production/_ext/1033058136/tcpip_manager.o

.text._UDPClose%333
                0x0040fed8       0x4c
 .text._UDPClose
                0x0040fed8       0x4c build/default/production/_ext/1033058136/udp.o

.text.TCPIP_UDP_DestinationIPAddressSet%334
                0x0040ff24       0x4a
 .text.TCPIP_UDP_DestinationIPAddressSet
                0x0040ff24       0x4a build/default/production/_ext/1033058136/udp.o
                0x0040ff24                TCPIP_UDP_DestinationIPAddressSet

.rodata.TCPIP_STACK_MODULE_CONFIG_TBL%335
                0x0040ff70       0x48
 .rodata.TCPIP_STACK_MODULE_CONFIG_TBL
                0x0040ff70       0x48 build/default/production/_ext/1171490990/initialization.o
                0x0040ff70                TCPIP_STACK_MODULE_CONFIG_TBL

.text._DRV_ETHPHY_SetupPhaseNegotiate_SubPhase1%336
                0x0040ffb8       0x48
 .text._DRV_ETHPHY_SetupPhaseNegotiate_SubPhase1
                0x0040ffb8       0x48 build/default/production/_ext/444070925/drv_ethphy.o

.text.DRV_ETHPHY_VendorSMIReadResultGet%337
                0x00410000       0x48
 .text.DRV_ETHPHY_VendorSMIReadResultGet
                0x00410000       0x48 build/default/production/_ext/444070925/drv_ethphy.o
                0x00410000                DRV_ETHPHY_VendorSMIReadResultGet

.text.DRV_GMAC_RegisterStatisticsGet%338
                0x00410048       0x48
 .text.DRV_GMAC_RegisterStatisticsGet
                0x00410048       0x48 build/default/production/_ext/1546807373/drv_gmac.o
                0x00410048                DRV_GMAC_RegisterStatisticsGet

.text.DRV_GMAC_Process%339
                0x00410090       0x48
 .text.DRV_GMAC_Process
                0x00410090       0x48 build/default/production/_ext/1546807373/drv_gmac.o
                0x00410090                DRV_GMAC_Process

.text.TCPIP_ARP_Deinitialize%340
                0x004100d8       0x48
 .text.TCPIP_ARP_Deinitialize
                0x004100d8       0x48 build/default/production/_ext/1033058136/arp.o
                0x004100d8                TCPIP_ARP_Deinitialize

.rodata._DHCPOptProcTbl%341
                0x00410120       0x48
 .rodata._DHCPOptProcTbl
                0x00410120       0x48 build/default/production/_ext/1033058136/dhcp.o

.text._TCPIPStackSignalHandlerRegister%342
                0x00410168       0x48
 .text._TCPIPStackSignalHandlerRegister
                0x00410168       0x48 build/default/production/_ext/1033058136/tcpip_manager.o
                0x00410168                _TCPIPStackSignalHandlerRegister

.text._TCPSendWinIncUpdate%343
                0x004101b0       0x48
 .text._TCPSendWinIncUpdate
                0x004101b0       0x48 build/default/production/_ext/1033058136/tcp.o

.text.TCPIP_UDP_Close%344
                0x004101f8       0x48
 .text.TCPIP_UDP_Close
                0x004101f8       0x48 build/default/production/_ext/1033058136/udp.o
                0x004101f8                TCPIP_UDP_Close

.text._XtlEventsTcp2Eth%345
                0x00410240       0x46
 .text._XtlEventsTcp2Eth
                0x00410240       0x46 build/default/production/_ext/1546807373/drv_gmac.o

.text.TCPIP_STACK_AddressServiceEvent%346
                0x00410286       0x46
 .text.TCPIP_STACK_AddressServiceEvent
                0x00410286       0x46 build/default/production/_ext/1033058136/tcpip_manager.o
                0x00410286                TCPIP_STACK_AddressServiceEvent

.text.TCPIP_UDP_ArrayPut%347
                0x004102cc       0x46
 .text.TCPIP_UDP_ArrayPut
                0x004102cc       0x46 build/default/production/_ext/1033058136/udp.o
                0x004102cc                TCPIP_UDP_ArrayPut

.text.SYS_INT_SourceDisable%348
                0x00410314       0x44
 .text.SYS_INT_SourceDisable
                0x00410314       0x44 build/default/production/_ext/1881668453/sys_int.o
                0x00410314                SYS_INT_SourceDisable

.text.DRV_MIIM_RegisterCallback%349
                0x00410358       0x44
 .text.DRV_MIIM_RegisterCallback
                0x00410358       0x44 build/default/production/_ext/438849557/drv_miim.o
                0x00410358                DRV_MIIM_RegisterCallback

.text.Helper_SingleListNodeRemove%350
                0x0041039c       0x44
 .text.Helper_SingleListNodeRemove
                0x0041039c       0x44 build/default/production/_ext/438849557/drv_miim.o
                0x0041039c                Helper_SingleListNodeRemove

.text.DRV_GMAC_RxFilterHashTableEntrySet%351
                0x004103e0       0x44
 .text.DRV_GMAC_RxFilterHashTableEntrySet
                0x004103e0       0x44 build/default/production/_ext/1546807373/drv_gmac.o
                0x004103e0                DRV_GMAC_RxFilterHashTableEntrySet

.text._DHCPSetTimeout%352
                0x00410424       0x44
 .text._DHCPSetTimeout
                0x00410424       0x44 build/default/production/_ext/1033058136/dhcp.o

.text._DNS_CleanCacheEntry%353
                0x00410468       0x44
 .text._DNS_CleanCacheEntry
                0x00410468       0x44 build/default/production/_ext/1033058136/dns.o

.text.hexatob%354
                0x004104ac       0x44
 .text.hexatob  0x004104ac       0x44 build/default/production/_ext/1033058136/helpers.o
                0x004104ac                hexatob

.text.TCPIP_Helper_SingleListNodeRemove%355
                0x004104f0       0x44
 .text.TCPIP_Helper_SingleListNodeRemove
                0x004104f0       0x44 build/default/production/_ext/1033058136/tcpip_helpers.o
                0x004104f0                TCPIP_Helper_SingleListNodeRemove

.text.TCPIP_STACK_NetByAddress%356
                0x00410534       0x44
 .text.TCPIP_STACK_NetByAddress
                0x00410534       0x44 build/default/production/_ext/1033058136/tcpip_manager.o
                0x00410534                TCPIP_STACK_NetByAddress

.text._UDPSetNewRxPacket%357
                0x00410578       0x44
 .text._UDPSetNewRxPacket
                0x00410578       0x44 build/default/production/_ext/1033058136/udp.o

.text._DRV_GMAC_LinkStateNegComplete%358
                0x004105bc       0x42
 .text._DRV_GMAC_LinkStateNegComplete
                0x004105bc       0x42 build/default/production/_ext/1546807373/drv_gmac.o

.text._DHCPOptionClientId%359
                0x004105fe       0x42
 .text._DHCPOptionClientId
                0x004105fe       0x42 build/default/production/_ext/1033058136/dhcp.o

.text._TcpSocketSetSourceInterface%360
                0x00410640       0x42
 .text._TcpSocketSetSourceInterface
                0x00410640       0x42 build/default/production/_ext/1033058136/tcp.o

.text._DRV_ETHPHY_NegRestartPhaseRead%361
                0x00410682       0x40
 .text._DRV_ETHPHY_NegRestartPhaseRead
                0x00410682       0x40 build/default/production/_ext/444070925/drv_ethphy.o

.text._DRV_ETHPHY_SetupPhaseNegotiate_SubPhase5%362
                0x004106c2       0x40
 .text._DRV_ETHPHY_SetupPhaseNegotiate_SubPhase5
                0x004106c2       0x40 build/default/production/_ext/444070925/drv_ethphy.o

.rodata.DRV_MIIM_OBJECT_BASE_Default%363
                0x00410704       0x40
 .rodata.DRV_MIIM_OBJECT_BASE_Default
                0x00410704       0x40 build/default/production/_ext/438849557/drv_miim.o
                0x00410704                DRV_MIIM_OBJECT_BASE_Default

.text._DHCPSetRunFail%364
                0x00410744       0x40
 .text._DHCPSetRunFail
                0x00410744       0x40 build/default/production/_ext/1033058136/dhcp.o

.text.TCPIP_DHCP_Deinitialize%365
                0x00410784       0x40
 .text.TCPIP_DHCP_Deinitialize
                0x00410784       0x40 build/default/production/_ext/1033058136/dhcp.o
                0x00410784                TCPIP_DHCP_Deinitialize

.text.TCPIP_DNS_RemoveEntry%366
                0x004107c4       0x40
 .text.TCPIP_DNS_RemoveEntry
                0x004107c4       0x40 build/default/production/_ext/1033058136/dns.o
                0x004107c4                TCPIP_DNS_RemoveEntry

.text.TCPIP_Helper_ProtectedSingleListNodeRemove%367
                0x00410804       0x40
 .text.TCPIP_Helper_ProtectedSingleListNodeRemove
                0x00410804       0x40 build/default/production/_ext/1033058136/tcpip_helpers.o
                0x00410804                TCPIP_Helper_ProtectedSingleListNodeRemove

.rodata%368     0x00410844       0x40
 .rodata        0x00410844       0x40 build/default/production/_ext/1033058136/tcpip_helpers.o

.text._TCP_PortIsAvailable%369
                0x00410884       0x40
 .text._TCP_PortIsAvailable
                0x00410884       0x40 build/default/production/_ext/1033058136/tcp.o

.text._UDPIsAvailablePort%370
                0x004108c4       0x40
 .text._UDPIsAvailablePort
                0x004108c4       0x40 build/default/production/_ext/1033058136/udp.o

.text.TCPIP_UDP_SocketNetSet%371
                0x00410904       0x40
 .text.TCPIP_UDP_SocketNetSet
                0x00410904       0x40 build/default/production/_ext/1033058136/udp.o
                0x00410904                TCPIP_UDP_SocketNetSet

.text.TCPIP_UDP_SourceIPAddressSet%372
                0x00410944       0x40
 .text.TCPIP_UDP_SourceIPAddressSet
                0x00410944       0x40 build/default/production/_ext/1033058136/udp.o
                0x00410944                TCPIP_UDP_SourceIPAddressSet

.text.rand%373  0x00410984       0x40
 .text.rand     0x00410984       0x40 d:/00_program_installation/microchip/xc32/v2.10/bin/bin/../../lib/gcc/pic32c/6.2.1/../../../../pic32c/lib/v7e-m/fpv5/hard\libc.a(lib_a-rand.o)
                0x00410984                rand

.text._DHCPOptionProcessSubNet%374
                0x004109c4       0x3e
 .text._DHCPOptionProcessSubNet
                0x004109c4       0x3e build/default/production/_ext/1033058136/dhcp.o

.text._DNSDiscardName%375
                0x00410a02       0x3e
 .text._DNSDiscardName
                0x00410a02       0x3e build/default/production/_ext/1033058136/dns.o

.text._TCPIP_HEAP_Delete%376
                0x00410a40       0x3e
 .text._TCPIP_HEAP_Delete
                0x00410a40       0x3e build/default/production/_ext/1033058136/tcpip_heap_internal.o

.text._TCPSetHalfFlushFlag%377
                0x00410a7e       0x3e
 .text._TCPSetHalfFlushFlag
                0x00410a7e       0x3e build/default/production/_ext/1033058136/tcp.o

.text.TCPIP_UDP_TxOffsetSet%378
                0x00410abc       0x3e
 .text.TCPIP_UDP_TxOffsetSet
                0x00410abc       0x3e build/default/production/_ext/1033058136/udp.o
                0x00410abc                TCPIP_UDP_TxOffsetSet

.text.NVIC_Initialize%379
                0x00410afc       0x3c
 .text.NVIC_Initialize
                0x00410afc       0x3c build/default/production/_ext/1865468468/plib_nvic.o
                0x00410afc                NVIC_Initialize

.text._DRV_ETHPHY_SetupPhaseNegotiate_SubPhase2%380
                0x00410b38       0x3c
 .text._DRV_ETHPHY_SetupPhaseNegotiate_SubPhase2
                0x00410b38       0x3c build/default/production/_ext/444070925/drv_ethphy.o

.text._DRV_ETHPHY_NegCompletePhaseRead1%381
                0x00410b74       0x3c
 .text._DRV_ETHPHY_NegCompletePhaseRead1
                0x00410b74       0x3c build/default/production/_ext/444070925/drv_ethphy.o

.text._DRV_MIIM_GetOpDcpt%382
                0x00410bb0       0x3c
 .text._DRV_MIIM_GetOpDcpt
                0x00410bb0       0x3c build/default/production/_ext/438849557/drv_miim.o

.text.DRV_GMAC_Open%383
                0x00410bec       0x3c
 .text.DRV_GMAC_Open
                0x00410bec       0x3c build/default/production/_ext/1546807373/drv_gmac.o
                0x00410bec                DRV_GMAC_Open

.text.SYS_TIME_TimerStart%384
                0x00410c28       0x3c
 .text.SYS_TIME_TimerStart
                0x00410c28       0x3c build/default/production/_ext/101884895/sys_time.o
                0x00410c28                SYS_TIME_TimerStart

.text.SYS_TIME_CallbackRegisterMS%385
                0x00410c64       0x3c
 .text.SYS_TIME_CallbackRegisterMS
                0x00410c64       0x3c build/default/production/_ext/101884895/sys_time.o
                0x00410c64                SYS_TIME_CallbackRegisterMS

.text._DHCPOptionProcessRouter%386
                0x00410ca0       0x3c
 .text._DHCPOptionProcessRouter
                0x00410ca0       0x3c build/default/production/_ext/1033058136/dhcp.o

.text._DHCPNotifyClients%387
                0x00410cdc       0x3c
 .text._DHCPNotifyClients
                0x00410cdc       0x3c build/default/production/_ext/1033058136/dhcp.o

.text.TCPIP_Helper_ProtectedSingleListHeadRemove%388
                0x00410d18       0x3c
 .text.TCPIP_Helper_ProtectedSingleListHeadRemove
                0x00410d18       0x3c build/default/production/_ext/1033058136/tcpip_helpers.o
                0x00410d18                TCPIP_Helper_ProtectedSingleListHeadRemove

.text.TCPIP_Helper_ProtectedSingleListRemoveAll%389
                0x00410d54       0x3c
 .text.TCPIP_Helper_ProtectedSingleListRemoveAll
                0x00410d54       0x3c build/default/production/_ext/1033058136/tcpip_helpers.o
                0x00410d54                TCPIP_Helper_ProtectedSingleListRemoveAll

.text._TCPIP_PKT_PacketFree%390
                0x00410d90       0x3c
 .text._TCPIP_PKT_PacketFree
                0x00410d90       0x3c build/default/production/_ext/1033058136/tcpip_packet.o
                0x00410d90                _TCPIP_PKT_PacketFree

.text._TcpSocketKill%391
                0x00410dcc       0x3c
 .text._TcpSocketKill
                0x00410dcc       0x3c build/default/production/_ext/1033058136/tcp.o

.text._TCP_EphemeralPortAllocate%392
                0x00410e08       0x3c
 .text._TCP_EphemeralPortAllocate
                0x00410e08       0x3c build/default/production/_ext/1033058136/tcp.o

.text.TCPIP_TCP_Close%393
                0x00410e44       0x3c
 .text.TCPIP_TCP_Close
                0x00410e44       0x3c build/default/production/_ext/1033058136/tcp.o
                0x00410e44                TCPIP_TCP_Close

.text.TCPIP_TCP_FifoTxFullGet%394
                0x00410e80       0x3c
 .text.TCPIP_TCP_FifoTxFullGet
                0x00410e80       0x3c build/default/production/_ext/1033058136/tcp.o
                0x00410e80                TCPIP_TCP_FifoTxFullGet

.text._UDPAllocateEphemeralPort%395
                0x00410ebc       0x3c
 .text._UDPAllocateEphemeralPort
                0x00410ebc       0x3c build/default/production/_ext/1033058136/udp.o

.text.TCPIP_UDP_OpenClientSkt%396
                0x00410ef8       0x3c
 .text.TCPIP_UDP_OpenClientSkt
                0x00410ef8       0x3c build/default/production/_ext/1033058136/udp.o
                0x00410ef8                TCPIP_UDP_OpenClientSkt

.text.__swrite%397
                0x00410f34       0x3c
 .text.__swrite
                0x00410f34       0x3c d:/00_program_installation/microchip/xc32/v2.10/bin/bin/../../lib/gcc/pic32c/6.2.1/../../../../pic32c/lib/v7e-m/fpv5/hard\libc.a(lib_a-stdio.o)
                0x00410f34                __swrite

.text._write%398
                0x00410f70       0x3c
 .text._write   0x00410f70       0x3c d:/00_program_installation/microchip/xc32/v2.10/bin/bin/../../lib/gcc/pic32c/6.2.1/../../../../pic32c/lib/v7e-m/fpv5/hard\libpic32c.a(write.o)
                0x00410f70                _write

.text._DRV_MIIM_GetObjectAndLock%399
                0x00410fac       0x3a
 .text._DRV_MIIM_GetObjectAndLock
                0x00410fac       0x3a build/default/production/_ext/438849557/drv_miim.o

.text._MacPacketAck%400
                0x00410fe6       0x3a
 .text._MacPacketAck
                0x00410fe6       0x3a build/default/production/_ext/1546807373/drv_gmac_lib.o

.text.timerHardwarePeriod_update%401
                0x00411020       0x3a
 .text.timerHardwarePeriod_update
                0x00411020       0x3a build/default/production/_ext/101884895/sys_time.o

.text._DHCPOptionProcessMsgType%402
                0x0041105a       0x3a
 .text._DHCPOptionProcessMsgType
                0x0041105a       0x3a build/default/production/_ext/1033058136/dhcp.o

.text.TCPIP_Helper_ProtectedSingleListTailAdd%403
                0x00411094       0x3a
 .text.TCPIP_Helper_ProtectedSingleListTailAdd
                0x00411094       0x3a build/default/production/_ext/1033058136/tcpip_helpers.o
                0x00411094                TCPIP_Helper_ProtectedSingleListTailAdd

.rodata.TCPIP_HOSTS_CONFIGURATION%404
                0x004110d0       0x38
 .rodata.TCPIP_HOSTS_CONFIGURATION
                0x004110d0       0x38 build/default/production/_ext/1171490990/initialization.o
                0x004110d0                TCPIP_HOSTS_CONFIGURATION

.text.DRV_ETHPHY_LinkStatusGet%405
                0x00411108       0x38
 .text.DRV_ETHPHY_LinkStatusGet
                0x00411108       0x38 build/default/production/_ext/444070925/drv_ethphy.o
                0x00411108                DRV_ETHPHY_LinkStatusGet

.text._DRV_PHY_NegCompleteSetOperResult%406
                0x00411140       0x38
 .text._DRV_PHY_NegCompleteSetOperResult
                0x00411140       0x38 build/default/production/_ext/444070925/drv_ethphy.o

.text._DRV_ETHPHY_LinkStatPhaseRefresh%407
                0x00411178       0x38
 .text._DRV_ETHPHY_LinkStatPhaseRefresh
                0x00411178       0x38 build/default/production/_ext/444070925/drv_ethphy.o

.text.DRV_MIIM_DeregisterCallback%408
                0x004111b0       0x38
 .text.DRV_MIIM_DeregisterCallback
                0x004111b0       0x38 build/default/production/_ext/438849557/drv_miim.o
                0x004111b0                DRV_MIIM_DeregisterCallback

.text._TCPIP_Helper_SecurePortEntry%409
                0x004111e8       0x38
 .text._TCPIP_Helper_SecurePortEntry
                0x004111e8       0x38 build/default/production/_ext/1033058136/tcpip_helpers.o

.text._TCPIPStackModuleRxInsert%410
                0x00411220       0x38
 .text._TCPIPStackModuleRxInsert
                0x00411220       0x38 build/default/production/_ext/1033058136/tcpip_manager.o
                0x00411220                _TCPIPStackModuleRxInsert

.text.TCPIP_PKT_PacketMACFormat%411
                0x00411258       0x38
 .text.TCPIP_PKT_PacketMACFormat
                0x00411258       0x38 build/default/production/_ext/1033058136/tcpip_packet.o
                0x00411258                TCPIP_PKT_PacketMACFormat

.text._TCPSetSourceAddress%412
                0x00411290       0x38
 .text._TCPSetSourceAddress
                0x00411290       0x38 build/default/production/_ext/1033058136/tcp.o

.text.DRV_ETHPHY_NegotiationResultGet%413
                0x004112c8       0x36
 .text.DRV_ETHPHY_NegotiationResultGet
                0x004112c8       0x36 build/default/production/_ext/444070925/drv_ethphy.o
                0x004112c8                DRV_ETHPHY_NegotiationResultGet

.text.TCPIP_UDP_RxOffsetSet%414
                0x004112fe       0x36
 .text.TCPIP_UDP_RxOffsetSet
                0x004112fe       0x36 build/default/production/_ext/1033058136/udp.o
                0x004112fe                TCPIP_UDP_RxOffsetSet

.text.DRV_MIIM_Deinitialize%415
                0x00411334       0x34
 .text.DRV_MIIM_Deinitialize
                0x00411334       0x34 build/default/production/_ext/438849557/drv_miim.o
                0x00411334                DRV_MIIM_Deinitialize

.text._ARPSetEntry%416
                0x00411368       0x34
 .text._ARPSetEntry
                0x00411368       0x34 build/default/production/_ext/1033058136/arp.o

.text.TCPIP_ARP_HashEntryDelete%417
                0x0041139c       0x34
 .text.TCPIP_ARP_HashEntryDelete
                0x0041139c       0x34 build/default/production/_ext/1033058136/arp.o
                0x0041139c                TCPIP_ARP_HashEntryDelete

.text.TCPIP_ARP_HandlerRegister%418
                0x004113d0       0x34
 .text.TCPIP_ARP_HandlerRegister
                0x004113d0       0x34 build/default/production/_ext/1033058136/arp.o
                0x004113d0                TCPIP_ARP_HandlerRegister

.text.TCPIP_DNS_OAHASH_KeyCopy%419
                0x00411404       0x34
 .text.TCPIP_DNS_OAHASH_KeyCopy
                0x00411404       0x34 build/default/production/_ext/1033058136/dns.o

.text.TCPIP_Helper_StringToPowerMode%420
                0x00411438       0x34
 .text.TCPIP_Helper_StringToPowerMode
                0x00411438       0x34 build/default/production/_ext/1033058136/tcpip_helpers.o
                0x00411438                TCPIP_Helper_StringToPowerMode

.text.__libc_fini_array%421
                0x0041146c       0x34
 .text.__libc_fini_array
                0x0041146c       0x34 d:/00_program_installation/microchip/xc32/v2.10/bin/bin/../../lib/gcc/pic32c/6.2.1/../../../../pic32c/lib/v7e-m/fpv5/hard\libc.a(lib_a-fini.o)
                0x0041146c                __libc_fini_array

.text._DNS_NetIsValid%422
                0x004114a0       0x32
 .text._DNS_NetIsValid
                0x004114a0       0x32 build/default/production/_ext/1033058136/dns.o

.text.TCPIP_Helper_ProtectedSingleListDeinitialize%423
                0x004114d2       0x32
 .text.TCPIP_Helper_ProtectedSingleListDeinitialize
                0x004114d2       0x32 build/default/production/_ext/1033058136/tcpip_helpers.o
                0x004114d2                TCPIP_Helper_ProtectedSingleListDeinitialize

.text.SYS_TIME_Counter64Get%424
                0x00411504       0x30
 .text.SYS_TIME_Counter64Get
                0x00411504       0x30 build/default/production/_ext/101884895/sys_time.o
                0x00411504                SYS_TIME_Counter64Get

.text.TCPIP_IPV4_CheckPktTx%425
                0x00411534       0x30
 .text.TCPIP_IPV4_CheckPktTx
                0x00411534       0x30 build/default/production/_ext/1033058136/ipv4.o

.text.IPv4RegisterFilter%426
                0x00411564       0x30
 .text.IPv4RegisterFilter
                0x00411564       0x30 build/default/production/_ext/1033058136/ipv4.o
                0x00411564                IPv4RegisterFilter

.text.fnv_32_hash%427
                0x00411594       0x30
 .text.fnv_32_hash
                0x00411594       0x30 build/default/production/_ext/1033058136/hash_fnv.o
                0x00411594                fnv_32_hash

.text.TCPIP_OAHASH_EntriesRemoveAll%428
                0x004115c4       0x30
 .text.TCPIP_OAHASH_EntriesRemoveAll
                0x004115c4       0x30 build/default/production/_ext/1033058136/oahash.o
                0x004115c4                TCPIP_OAHASH_EntriesRemoveAll

.text.TCPIP_PKT_Initialize%429
                0x004115f4       0x30
 .text.TCPIP_PKT_Initialize
                0x004115f4       0x30 build/default/production/_ext/1033058136/tcpip_packet.o
                0x004115f4                TCPIP_PKT_Initialize

.text._TCPSocketTxFreeSize%430
                0x00411624       0x30
 .text._TCPSocketTxFreeSize
                0x00411624       0x30 build/default/production/_ext/1033058136/tcp.o

.text%431       0x00411654       0x30
 .text          0x00411654       0x30 d:/00_program_installation/microchip/xc32/v2.10/bin/bin/../../lib/gcc/pic32c/6.2.1/v7e-m/fpv5/hard\libgcc.a(_aeabi_uldivmod.o)
                0x00411654                __aeabi_uldivmod

.text.DRV_ETHPHY_Reset%432
                0x00411684       0x2e
 .text.DRV_ETHPHY_Reset
                0x00411684       0x2e build/default/production/_ext/444070925/drv_ethphy.o
                0x00411684                DRV_ETHPHY_Reset

.text.DRV_ETHPHY_NegotiationIsComplete%433
                0x004116b2       0x2e
 .text.DRV_ETHPHY_NegotiationIsComplete
                0x004116b2       0x2e build/default/production/_ext/444070925/drv_ethphy.o
                0x004116b2                DRV_ETHPHY_NegotiationIsComplete

.text._ARPRemoveEntry%434
                0x004116e0       0x2e
 .text._ARPRemoveEntry
                0x004116e0       0x2e build/default/production/_ext/1033058136/arp.o

.text._DHCPOptionProcessLease%435
                0x0041170e       0x2e
 .text._DHCPOptionProcessLease
                0x0041170e       0x2e build/default/production/_ext/1033058136/dhcp.o

.text._DHCPOptionProcessRenewT%436
                0x0041173c       0x2e
 .text._DHCPOptionProcessRenewT
                0x0041173c       0x2e build/default/production/_ext/1033058136/dhcp.o

.text._DHCPOptionProcessRebindT%437
                0x0041176a       0x2e
 .text._DHCPOptionProcessRebindT
                0x0041176a       0x2e build/default/production/_ext/1033058136/dhcp.o

.text.TCPIP_STACK_DNSServiceCanStart%438
                0x00411798       0x2e
 .text.TCPIP_STACK_DNSServiceCanStart
                0x00411798       0x2e build/default/production/_ext/1033058136/tcpip_manager.o
                0x00411798                TCPIP_STACK_DNSServiceCanStart

.text.TCPIP_TCP_Connect%439
                0x004117c6       0x2e
 .text.TCPIP_TCP_Connect
                0x004117c6       0x2e build/default/production/_ext/1033058136/tcp.o
                0x004117c6                TCPIP_TCP_Connect

.text.TCPIP_STACK_Init%440
                0x004117f4       0x2c
 .text.TCPIP_STACK_Init
                0x004117f4       0x2c build/default/production/_ext/1171490990/initialization.o
                0x004117f4                TCPIP_STACK_Init

.text._DRV_ETHPHY_ClientOpSetup%441
                0x00411820       0x2c
 .text._DRV_ETHPHY_ClientOpSetup
                0x00411820       0x2c build/default/production/_ext/444070925/drv_ethphy.o

.text.DRV_ETHPHY_RestartNegotiation%442
                0x0041184c       0x2c
 .text.DRV_ETHPHY_RestartNegotiation
                0x0041184c       0x2c build/default/production/_ext/444070925/drv_ethphy.o
                0x0041184c                DRV_ETHPHY_RestartNegotiation

.text._DRV_ETHPHY_ClientOpReset%443
                0x00411878       0x2c
 .text._DRV_ETHPHY_ClientOpReset
                0x00411878       0x2c build/default/production/_ext/444070925/drv_ethphy.o

.text._DRV_ETHPHY_ClientOpLinkStat%444
                0x004118a4       0x2c
 .text._DRV_ETHPHY_ClientOpLinkStat
                0x004118a4       0x2c build/default/production/_ext/444070925/drv_ethphy.o

.text._DRV_ETHPHY_ClientOpNegResult%445
                0x004118d0       0x2c
 .text._DRV_ETHPHY_ClientOpNegResult
                0x004118d0       0x2c build/default/production/_ext/444070925/drv_ethphy.o

.text._DRV_ETHPHY_ClientOpNegComplete%446
                0x004118fc       0x2c
 .text._DRV_ETHPHY_ClientOpNegComplete
                0x004118fc       0x2c build/default/production/_ext/444070925/drv_ethphy.o

.text._DRV_ETHPHY_ClientOpNegRestart%447
                0x00411928       0x2c
 .text._DRV_ETHPHY_ClientOpNegRestart
                0x00411928       0x2c build/default/production/_ext/444070925/drv_ethphy.o

.text._DRV_ETHPHY_SetupPhaseNegotiate%448
                0x00411954       0x2c
 .text._DRV_ETHPHY_SetupPhaseNegotiate
                0x00411954       0x2c build/default/production/_ext/444070925/drv_ethphy.o

.text._DRV_GMAC_LinkStateDown%449
                0x00411980       0x2c
 .text._DRV_GMAC_LinkStateDown
                0x00411980       0x2c build/default/production/_ext/1546807373/drv_gmac.o

.text._DNSClientCleanup%450
                0x004119ac       0x2c
 .text._DNSClientCleanup
                0x004119ac       0x2c build/default/production/_ext/1033058136/dns.o

.text.TCPIP_STACK_AddressServiceDefaultSet%451
                0x004119d8       0x2c
 .text.TCPIP_STACK_AddressServiceDefaultSet
                0x004119d8       0x2c build/default/production/_ext/1033058136/tcpip_manager.o
                0x004119d8                TCPIP_STACK_AddressServiceDefaultSet

.text.TCPIP_STACK_IsBcastAddress%452
                0x00411a04       0x2c
 .text.TCPIP_STACK_IsBcastAddress
                0x00411a04       0x2c build/default/production/_ext/1033058136/tcpip_manager.o
                0x00411a04                TCPIP_STACK_IsBcastAddress

.text.TCPIP_TCP_SignalHandlerRegister%453
                0x00411a30       0x2c
 .text.TCPIP_TCP_SignalHandlerRegister
                0x00411a30       0x2c build/default/production/_ext/1033058136/tcp.o
                0x00411a30                TCPIP_TCP_SignalHandlerRegister

.text.TCPIP_UDP_IsConnected%454
                0x00411a5c       0x2c
 .text.TCPIP_UDP_IsConnected
                0x00411a5c       0x2c build/default/production/_ext/1033058136/udp.o
                0x00411a5c                TCPIP_UDP_IsConnected

.text.__ascii_mbtowc%455
                0x00411a88       0x2c
 .text.__ascii_mbtowc
                0x00411a88       0x2c d:/00_program_installation/microchip/xc32/v2.10/bin/bin/../../lib/gcc/pic32c/6.2.1/../../../../pic32c/lib/v7e-m/fpv5/hard\libc.a(lib_a-mbtowc_r.o)
                0x00411a88                __ascii_mbtowc

.text._fflush_r%456
                0x00411ab4       0x2c
 .text._fflush_r
                0x00411ab4       0x2c d:/00_program_installation/microchip/xc32/v2.10/bin/bin/../../lib/gcc/pic32c/6.2.1/../../../../pic32c/lib/v7e-m/fpv5/hard\libc.a(lib_a-fflush.o)
                0x00411ab4                _fflush_r

.text._write_r%457
                0x00411ae0       0x2c
 .text._write_r
                0x00411ae0       0x2c d:/00_program_installation/microchip/xc32/v2.10/bin/bin/../../lib/gcc/pic32c/6.2.1/../../../../pic32c/lib/v7e-m/fpv5/hard\libc.a(lib_a-writer.o)
                0x00411ae0                _write_r

.text._lseek_r%458
                0x00411b0c       0x2c
 .text._lseek_r
                0x00411b0c       0x2c d:/00_program_installation/microchip/xc32/v2.10/bin/bin/../../lib/gcc/pic32c/6.2.1/../../../../pic32c/lib/v7e-m/fpv5/hard\libc.a(lib_a-lseekr.o)
                0x00411b0c                _lseek_r

.text._read_r%459
                0x00411b38       0x2c
 .text._read_r  0x00411b38       0x2c d:/00_program_installation/microchip/xc32/v2.10/bin/bin/../../lib/gcc/pic32c/6.2.1/../../../../pic32c/lib/v7e-m/fpv5/hard\libc.a(lib_a-readr.o)
                0x00411b38                _read_r

.text._sbrk%460
                0x00411b64       0x2c
 .text._sbrk    0x00411b64       0x2c d:/00_program_installation/microchip/xc32/v2.10/bin/bin/../../lib/gcc/pic32c/6.2.1/../../../../pic32c/lib/v7e-m/fpv5/hard\libpic32c.a(sbrk.o)
                0x00411b64                _sbrk

.text._DRV_GMAC_LinkStateStartLink%461
                0x00411b90       0x2a
 .text._DRV_GMAC_LinkStateStartLink
                0x00411b90       0x2a build/default/production/_ext/1546807373/drv_gmac.o

.text.TCPIP_TCP_WasReset%462
                0x00411bba       0x2a
 .text.TCPIP_TCP_WasReset
                0x00411bba       0x2a build/default/production/_ext/1033058136/tcp.o
                0x00411bba                TCPIP_TCP_WasReset

.text._UDPFreeTxResources%463
                0x00411be4       0x2a
 .text._UDPFreeTxResources
                0x00411be4       0x2a build/default/production/_ext/1033058136/udp.o

.rodata.tcpipARPInitData%464
                0x0040aa58       0x28
 .rodata.tcpipARPInitData
                0x0040aa58       0x28 build/default/production/_ext/1171490990/initialization.o
                0x0040aa58                tcpipARPInitData

.text._DRV_ETHPHY_ClientOpSmiRead%465
                0x00411c0e       0x28
 .text._DRV_ETHPHY_ClientOpSmiRead
                0x00411c0e       0x28 build/default/production/_ext/444070925/drv_ethphy.o

.rodata._DRV_PHY_ClientOpTbl%466
                0x00411c38       0x28
 .rodata._DRV_PHY_ClientOpTbl
                0x00411c38       0x28 build/default/production/_ext/444070925/drv_ethphy.o

.text.DRV_MIIM_Status%467
                0x00411c60       0x28
 .text.DRV_MIIM_Status
                0x00411c60       0x28 build/default/production/_ext/438849557/drv_miim.o
                0x00411c60                DRV_MIIM_Status

.text.DRV_GMAC_ConfigGet%468
                0x00411c88       0x28
 .text.DRV_GMAC_ConfigGet
                0x00411c88       0x28 build/default/production/_ext/1546807373/drv_gmac.o
                0x00411c88                DRV_GMAC_ConfigGet

.text.DRV_GMAC_LinkCheck%469
                0x00411cb0       0x28
 .text.DRV_GMAC_LinkCheck
                0x00411cb0       0x28 build/default/production/_ext/1546807373/drv_gmac.o
                0x00411cb0                DRV_GMAC_LinkCheck

.text.time_resourceUnlock%470
                0x00411cd8       0x28
 .text.time_resourceUnlock
                0x00411cd8       0x28 build/default/production/_ext/101884895/sys_time.o

.text.TC0_CH0_TimerInitialize%471
                0x00411d00       0x28
 .text.TC0_CH0_TimerInitialize
                0x00411d00       0x28 build/default/production/_ext/829342655/plib_tc0.o
                0x00411d00                TC0_CH0_TimerInitialize

.text._DHCPOptionWriteParamRequest%472
                0x00411d28       0x28
 .text._DHCPOptionWriteParamRequest
                0x00411d28       0x28 build/default/production/_ext/1033058136/dhcp.o

.text._DNSGetData%473
                0x00411d50       0x28
 .text._DNSGetData
                0x00411d50       0x28 build/default/production/_ext/1033058136/dns.o

.text._TCPIP_STACK_TickHandler%474
                0x00411d78       0x28
 .text._TCPIP_STACK_TickHandler
                0x00411d78       0x28 build/default/production/_ext/1033058136/tcpip_manager.o

.text.TCPIP_STACK_NetIsBcastAddress%475
                0x00411da0       0x28
 .text.TCPIP_STACK_NetIsBcastAddress
                0x00411da0       0x28 build/default/production/_ext/1033058136/tcpip_manager.o
                0x00411da0                TCPIP_STACK_NetIsBcastAddress

.text._TCPIPStackModuleSignalGet%476
                0x00411dc8       0x28
 .text._TCPIPStackModuleSignalGet
                0x00411dc8       0x28 build/default/production/_ext/1033058136/tcpip_manager.o
                0x00411dc8                _TCPIPStackModuleSignalGet

.text._TCPIP_PKT_SocketAlloc%477
                0x00411df0       0x28
 .text._TCPIP_PKT_SocketAlloc
                0x00411df0       0x28 build/default/production/_ext/1033058136/tcpip_packet.o
                0x00411df0                _TCPIP_PKT_SocketAlloc

.text._TcpSocketChk%478
                0x00411e18       0x28
 .text._TcpSocketChk
                0x00411e18       0x28 build/default/production/_ext/1033058136/tcp.o

.text._TcpFlush%479
                0x00411e40       0x28
 .text._TcpFlush
                0x00411e40       0x28 build/default/production/_ext/1033058136/tcp.o

.text._UDPSocketDcpt%480
                0x00411e68       0x28
 .text._UDPSocketDcpt
                0x00411e68       0x28 build/default/production/_ext/1033058136/udp.o

.text.TCPIP_UDP_GetIsReady%481
                0x00411e90       0x28
 .text.TCPIP_UDP_GetIsReady
                0x00411e90       0x28 build/default/production/_ext/1033058136/udp.o
                0x00411e90                TCPIP_UDP_GetIsReady

.text.TCPIP_UDP_SignalHandlerRegister%482
                0x00411eb8       0x28
 .text.TCPIP_UDP_SignalHandlerRegister
                0x00411eb8       0x28 build/default/production/_ext/1033058136/udp.o
                0x00411eb8                TCPIP_UDP_SignalHandlerRegister

.rodata%483     0x00411ee0       0x28
 .rodata        0x00411ee0       0x28 d:/00_program_installation/microchip/xc32/v2.10/bin/bin/../../lib/gcc/pic32c/6.2.1/../../../../pic32c/lib/v7e-m/fpv5/hard\libc.a(vfprintf.cdnopsuxX.o)

.text._fputwc_r%484
                0x00411f08       0x28
 .text._fputwc_r
                0x00411f08       0x28 d:/00_program_installation/microchip/xc32/v2.10/bin/bin/../../lib/gcc/pic32c/6.2.1/../../../../pic32c/lib/v7e-m/fpv5/hard\libc.a(lib_a-fputwc.o)
                0x00411f08                _fputwc_r

.text._fstat_r%485
                0x00411f30       0x28
 .text._fstat_r
                0x00411f30       0x28 d:/00_program_installation/microchip/xc32/v2.10/bin/bin/../../lib/gcc/pic32c/6.2.1/../../../../pic32c/lib/v7e-m/fpv5/hard\libc.a(lib_a-fstatr.o)
                0x00411f30                _fstat_r

.text._read%486
                0x00411f58       0x28
 .text._read    0x00411f58       0x28 d:/00_program_installation/microchip/xc32/v2.10/bin/bin/../../lib/gcc/pic32c/6.2.1/../../../../pic32c/lib/v7e-m/fpv5/hard\libpic32c.a(read.o)
                0x00411f58                _read

.text.TCPIP_Helper_ProtectedSingleListLock%487
                0x00411f80       0x26
 .text.TCPIP_Helper_ProtectedSingleListLock
                0x00411f80       0x26 build/default/production/_ext/1033058136/tcpip_helpers.o
                0x00411f80                TCPIP_Helper_ProtectedSingleListLock

.text.TCPIP_STACK_DNSServiceSelect%488
                0x00411fa6       0x26
 .text.TCPIP_STACK_DNSServiceSelect
                0x00411fa6       0x26 build/default/production/_ext/1033058136/tcpip_manager.o
                0x00411fa6                TCPIP_STACK_DNSServiceSelect

.text.TCPIP_STACK_AddressServiceSelect%489
                0x00411fcc       0x26
 .text.TCPIP_STACK_AddressServiceSelect
                0x00411fcc       0x26 build/default/production/_ext/1033058136/tcpip_manager.o
                0x00411fcc                TCPIP_STACK_AddressServiceSelect

.text.TCPIP_TCP_Discard%490
                0x00411ff2       0x26
 .text.TCPIP_TCP_Discard
                0x00411ff2       0x26 build/default/production/_ext/1033058136/tcp.o
                0x00411ff2                TCPIP_TCP_Discard

.text._UDPFreeRxQueue%491
                0x00412018       0x26
 .text._UDPFreeRxQueue
                0x00412018       0x26 build/default/production/_ext/1033058136/udp.o

.text.DRV_ETHPHY_HWConfigFlagsGet%492
                0x00412040       0x24
 .text.DRV_ETHPHY_HWConfigFlagsGet
                0x00412040       0x24 build/default/production/_ext/444070925/drv_ethphy.o
                0x00412040                DRV_ETHPHY_HWConfigFlagsGet

.text._DRV_ETHPHY_NegResultPhase_ANLPAD%493
                0x00412064       0x24
 .text._DRV_ETHPHY_NegResultPhase_ANLPAD
                0x00412064       0x24 build/default/production/_ext/444070925/drv_ethphy.o

.text._DRV_ETHPHY_NegResultPhase_ANEXP%494
                0x00412088       0x24
 .text._DRV_ETHPHY_NegResultPhase_ANEXP
                0x00412088       0x24 build/default/production/_ext/444070925/drv_ethphy.o

.text.DRV_PIC32CGMAC_LibClose%495
                0x004120ac       0x24
 .text.DRV_PIC32CGMAC_LibClose
                0x004120ac       0x24 build/default/production/_ext/1546807373/drv_gmac_lib.o
                0x004120ac                DRV_PIC32CGMAC_LibClose

.text.TC0_CH0_InterruptHandler%496
                0x004120d0       0x24
 .text.TC0_CH0_InterruptHandler
                0x004120d0       0x24 build/default/production/_ext/829342655/plib_tc0.o
                0x004120d0                TC0_CH0_InterruptHandler

.text._ARPAllocateTxPacket%497
                0x004120f4       0x24
 .text._ARPAllocateTxPacket
                0x004120f4       0x24 build/default/production/_ext/1033058136/arp.o

.text._ARPRemoveCacheEntries%498
                0x00412118       0x24
 .text._ARPRemoveCacheEntries
                0x00412118       0x24 build/default/production/_ext/1033058136/arp.o

.text.TCPIP_ARP_HandlerDeRegister%499
                0x0041213c       0x24
 .text.TCPIP_ARP_HandlerDeRegister
                0x0041213c       0x24 build/default/production/_ext/1033058136/arp.o
                0x0041213c                TCPIP_ARP_HandlerDeRegister

.text._DHCPOptionProcessSrvIdent%500
                0x00412160       0x24
 .text._DHCPOptionProcessSrvIdent
                0x00412160       0x24 build/default/production/_ext/1033058136/dhcp.o

.text._DHCPOptionWriteMsgType%501
                0x00412184       0x24
 .text._DHCPOptionWriteMsgType
                0x00412184       0x24 build/default/production/_ext/1033058136/dhcp.o

.text.Ipv4DeRegisterFilter%502
                0x004121a8       0x24
 .text.Ipv4DeRegisterFilter
                0x004121a8       0x24 build/default/production/_ext/1033058136/ipv4.o
                0x004121a8                Ipv4DeRegisterFilter

.rodata._tcpip_heap_object%503
                0x004121cc       0x24
 .rodata._tcpip_heap_object
                0x004121cc       0x24 build/default/production/_ext/1033058136/tcpip_heap_internal.o

.text.TCPIP_OAHASH_Initialize%504
                0x004121f0       0x24
 .text.TCPIP_OAHASH_Initialize
                0x004121f0       0x24 build/default/production/_ext/1033058136/oahash.o
                0x004121f0                TCPIP_OAHASH_Initialize

.text.TCPIP_STACK_IPAddToNet%505
                0x00412214       0x24
 .text.TCPIP_STACK_IPAddToNet
                0x00412214       0x24 build/default/production/_ext/1033058136/tcpip_manager.o
                0x00412214                TCPIP_STACK_IPAddToNet

.text._TCPIPStackSetConfigAddress%506
                0x00412238       0x24
 .text._TCPIPStackSetConfigAddress
                0x00412238       0x24 build/default/production/_ext/1033058136/tcpip_manager.o
                0x00412238                _TCPIPStackSetConfigAddress

.text._TCPIPStackHandleToNetLinked%507
                0x0041225c       0x24
 .text._TCPIPStackHandleToNetLinked
                0x0041225c       0x24 build/default/production/_ext/1033058136/tcpip_manager.o
                0x0041225c                _TCPIPStackHandleToNetLinked

.text.TCPIP_TCP_Flush%508
                0x00412280       0x24
 .text.TCPIP_TCP_Flush
                0x00412280       0x24 build/default/production/_ext/1033058136/tcp.o
                0x00412280                TCPIP_TCP_Flush

.text.TCPIP_TCP_SignalHandlerDeregister%509
                0x004122a4       0x24
 .text.TCPIP_TCP_SignalHandlerDeregister
                0x004122a4       0x24 build/default/production/_ext/1033058136/tcp.o
                0x004122a4                TCPIP_TCP_SignalHandlerDeregister

.text.TCPIP_UDP_SignalHandlerDeregister%510
                0x004122c8       0x24
 .text.TCPIP_UDP_SignalHandlerDeregister
                0x004122c8       0x24 build/default/production/_ext/1033058136/udp.o
                0x004122c8                TCPIP_UDP_SignalHandlerDeregister

.text._sbrk_r%511
                0x004122ec       0x24
 .text._sbrk_r  0x004122ec       0x24 d:/00_program_installation/microchip/xc32/v2.10/bin/bin/../../lib/gcc/pic32c/6.2.1/../../../../pic32c/lib/v7e-m/fpv5/hard\libc.a(lib_a-sbrkr.o)
                0x004122ec                _sbrk_r

.text.__sread%512
                0x00412310       0x24
 .text.__sread  0x00412310       0x24 d:/00_program_installation/microchip/xc32/v2.10/bin/bin/../../lib/gcc/pic32c/6.2.1/../../../../pic32c/lib/v7e-m/fpv5/hard\libc.a(lib_a-stdio.o)
                0x00412310                __sread

.text._close_r%513
                0x00412334       0x24
 .text._close_r
                0x00412334       0x24 d:/00_program_installation/microchip/xc32/v2.10/bin/bin/../../lib/gcc/pic32c/6.2.1/../../../../pic32c/lib/v7e-m/fpv5/hard\libc.a(lib_a-closer.o)
                0x00412334                _close_r

.text._isatty_r%514
                0x00412358       0x24
 .text._isatty_r
                0x00412358       0x24 d:/00_program_installation/microchip/xc32/v2.10/bin/bin/../../lib/gcc/pic32c/6.2.1/../../../../pic32c/lib/v7e-m/fpv5/hard\libc.a(lib_a-isattyr.o)
                0x00412358                _isatty_r

.text.DRV_ETHPHY_Reinitialize%515
                0x0041237c       0x22
 .text.DRV_ETHPHY_Reinitialize
                0x0041237c       0x22 build/default/production/_ext/444070925/drv_ethphy.o
                0x0041237c                DRV_ETHPHY_Reinitialize

.text.DRV_MIIM_Close%516
                0x0041239e       0x22
 .text.DRV_MIIM_Close
                0x0041239e       0x22 build/default/production/_ext/438849557/drv_miim.o
                0x0041239e                DRV_MIIM_Close

.text._TCPIP_HEAP_LastError%517
                0x004123c0       0x22
 .text._TCPIP_HEAP_LastError
                0x004123c0       0x22 build/default/production/_ext/1033058136/tcpip_heap_internal.o

.text.TCPIP_TCP_IsConnected%518
                0x004123e2       0x22
 .text.TCPIP_TCP_IsConnected
                0x004123e2       0x22 build/default/production/_ext/1033058136/tcp.o
                0x004123e2                TCPIP_TCP_IsConnected

.text._UDPTxPktValid%519
                0x00412404       0x22
 .text._UDPTxPktValid
                0x00412404       0x22 build/default/production/_ext/1033058136/udp.o

.text.TCPIP_UDP_Discard%520
                0x00412426       0x22
 .text.TCPIP_UDP_Discard
                0x00412426       0x22 build/default/production/_ext/1033058136/udp.o
                0x00412426                TCPIP_UDP_Discard

.rodata.netPresCfgs%521
                0x00412448       0x20
 .rodata.netPresCfgs
                0x00412448       0x20 build/default/production/_ext/1171490990/initialization.o

.rodata.tcpipPhyInitData%522
                0x00412468       0x20
 .rodata.tcpipPhyInitData
                0x00412468       0x20 build/default/production/_ext/1171490990/initialization.o
                0x00412468                tcpipPhyInitData

.text.SYS_Tasks%523
                0x00412488       0x20
 .text.SYS_Tasks
                0x00412488       0x20 build/default/production/_ext/1171490990/tasks.o
                0x00412488                SYS_Tasks

.text.DRV_ETHPHY_Tasks%524
                0x004124a8       0x20
 .text.DRV_ETHPHY_Tasks
                0x004124a8       0x20 build/default/production/_ext/444070925/drv_ethphy.o
                0x004124a8                DRV_ETHPHY_Tasks

.text.DRV_ETHPHY_Close%525
                0x004124c8       0x20
 .text.DRV_ETHPHY_Close
                0x004124c8       0x20 build/default/production/_ext/444070925/drv_ethphy.o
                0x004124c8                DRV_ETHPHY_Close

.text._DRV_ETHPHY_ClientOpSmiWrite%526
                0x004124e8       0x20
 .text._DRV_ETHPHY_ClientOpSmiWrite
                0x004124e8       0x20 build/default/production/_ext/444070925/drv_ethphy.o

.text._DRV_ETHPHY_NegRestartPhaseWrite%527
                0x00412508       0x20
 .text._DRV_ETHPHY_NegRestartPhaseWrite
                0x00412508       0x20 build/default/production/_ext/444070925/drv_ethphy.o

.text._DRV_ETHPHY_SetupPhaseNegotiate_SubPhase4%528
                0x00412528       0x20
 .text._DRV_ETHPHY_SetupPhaseNegotiate_SubPhase4
                0x00412528       0x20 build/default/production/_ext/444070925/drv_ethphy.o

.text.Helper_SingleListHeadRemove%529
                0x00412548       0x20
 .text.Helper_SingleListHeadRemove
                0x00412548       0x20 build/default/production/_ext/438849557/drv_miim.o
                0x00412548                Helper_SingleListHeadRemove

.text.DRV_PIC32CGMAC_LibTransferEnable%530
                0x00412568       0x20
 .text.DRV_PIC32CGMAC_LibTransferEnable
                0x00412568       0x20 build/default/production/_ext/1546807373/drv_gmac_lib.o
                0x00412568                DRV_PIC32CGMAC_LibTransferEnable

.text.DRV_PIC32CGMAC_SingleListHeadRemove%531
                0x00412588       0x20
 .text.DRV_PIC32CGMAC_SingleListHeadRemove
                0x00412588       0x20 build/default/production/_ext/1546807373/drv_gmac_lib.o
                0x00412588                DRV_PIC32CGMAC_SingleListHeadRemove

.text._SwapARPPacket%532
                0x004125a8       0x20
 .text._SwapARPPacket
                0x004125a8       0x20 build/default/production/_ext/1033058136/arp.o

.text.TCPIP_DNS_OAHASH_KeyHash%533
                0x004125c8       0x20
 .text.TCPIP_DNS_OAHASH_KeyHash
                0x004125c8       0x20 build/default/production/_ext/1033058136/dns.o

.text.TCPIP_Helper_SingleListHeadRemove%534
                0x004125e8       0x20
 .text.TCPIP_Helper_SingleListHeadRemove
                0x004125e8       0x20 build/default/production/_ext/1033058136/tcpip_helpers.o
                0x004125e8                TCPIP_Helper_SingleListHeadRemove

.rodata.TCPIP_MAC_POWER_TBL%535
                0x00412608       0x20
 .rodata.TCPIP_MAC_POWER_TBL
                0x00412608       0x20 build/default/production/_ext/1033058136/tcpip_helpers.o

.text.TCPIP_STACK_IndexToNet%536
                0x00412628       0x20
 .text.TCPIP_STACK_IndexToNet
                0x00412628       0x20 build/default/production/_ext/1033058136/tcpip_manager.o
                0x00412628                TCPIP_STACK_IndexToNet

.rodata%537     0x00412648       0x20
 .rodata        0x00412648       0x20 build/default/production/_ext/1033058136/tcpip_manager.o

.text.TCPIP_Notification_Remove%538
                0x00412668       0x20
 .text.TCPIP_Notification_Remove
                0x00412668       0x20 build/default/production/_ext/1033058136/tcpip_notify.o
                0x00412668                TCPIP_Notification_Remove

.text.TCPIP_UDP_DestinationPortSet%539
                0x00412688       0x20
 .text.TCPIP_UDP_DestinationPortSet
                0x00412688       0x20 build/default/production/_ext/1033058136/udp.o
                0x00412688                TCPIP_UDP_DestinationPortSet

.text.__sseek%540
                0x004126a8       0x20
 .text.__sseek  0x004126a8       0x20 d:/00_program_installation/microchip/xc32/v2.10/bin/bin/../../lib/gcc/pic32c/6.2.1/../../../../pic32c/lib/v7e-m/fpv5/hard\libc.a(lib_a-stdio.o)
                0x004126a8                __sseek

.text.DRV_ETHPHY_ClientOperationAbort%541
                0x004126c8       0x1e
 .text.DRV_ETHPHY_ClientOperationAbort
                0x004126c8       0x1e build/default/production/_ext/444070925/drv_ethphy.o
                0x004126c8                DRV_ETHPHY_ClientOperationAbort

.text.TCPIP_Helper_ProtectedSingleListInitialize%542
                0x004126e6       0x1e
 .text.TCPIP_Helper_ProtectedSingleListInitialize
                0x004126e6       0x1e build/default/production/_ext/1033058136/tcpip_helpers.o
                0x004126e6                TCPIP_Helper_ProtectedSingleListInitialize

.text.TCPIP_STACK_NetAddressBcast%543
                0x00412704       0x1e
 .text.TCPIP_STACK_NetAddressBcast
                0x00412704       0x1e build/default/production/_ext/1033058136/tcpip_manager.o
                0x00412704                TCPIP_STACK_NetAddressBcast

.text.TCPIP_STACK_NetworkIsLinked%544
                0x00412722       0x1e
 .text.TCPIP_STACK_NetworkIsLinked
                0x00412722       0x1e build/default/production/_ext/1033058136/tcpip_manager.o
                0x00412722                TCPIP_STACK_NetworkIsLinked

.text._TCPIP_PKT_PacketAcknowledge%545
                0x00412740       0x1e
 .text._TCPIP_PKT_PacketAcknowledge
                0x00412740       0x1e build/default/production/_ext/1033058136/tcpip_packet.o
                0x00412740                _TCPIP_PKT_PacketAcknowledge

.text.TCPIP_PKT_PayloadLen%546
                0x0041275e       0x1e
 .text.TCPIP_PKT_PayloadLen
                0x0041275e       0x1e build/default/production/_ext/1033058136/tcpip_packet.o
                0x0041275e                TCPIP_PKT_PayloadLen

.text._TCPIsGetReady%547
                0x0041277c       0x1e
 .text._TCPIsGetReady
                0x0041277c       0x1e build/default/production/_ext/1033058136/tcp.o

.rodata._DRV_PHY_SetupPhaseNegotiateSubPhaseTbl%548
                0x0041279c       0x1c
 .rodata._DRV_PHY_SetupPhaseNegotiateSubPhaseTbl
                0x0041279c       0x1c build/default/production/_ext/444070925/drv_ethphy.o

.text._ARPTxAckFnc%549
                0x004127b8       0x1c
 .text._ARPTxAckFnc
                0x004127b8       0x1c build/default/production/_ext/1033058136/arp.o

.rodata._DHCPOptWriteTbl%550
                0x004127d4       0x1c
 .rodata._DHCPOptWriteTbl
                0x004127d4       0x1c build/default/production/_ext/1033058136/dhcp.o

.text.TCPIP_IPV4_MaxDatagramDataSizeGet%551
                0x004127f0       0x1c
 .text.TCPIP_IPV4_MaxDatagramDataSizeGet
                0x004127f0       0x1c build/default/production/_ext/1033058136/ipv4.o
                0x004127f0                TCPIP_IPV4_MaxDatagramDataSizeGet

.text._TCPIP_HEAP_FreeSize%552
                0x0041280c       0x1c
 .text._TCPIP_HEAP_FreeSize
                0x0041280c       0x1c build/default/production/_ext/1033058136/tcpip_heap_internal.o

.text._TCPIP_HEAP_Calloc%553
                0x00412828       0x1c
 .text._TCPIP_HEAP_Calloc
                0x00412828       0x1c build/default/production/_ext/1033058136/tcpip_heap_internal.o

.text.TCPIP_Helper_SingleListAppend%554
                0x00412844       0x1c
 .text.TCPIP_Helper_SingleListAppend
                0x00412844       0x1c build/default/production/_ext/1033058136/tcpip_helpers.o
                0x00412844                TCPIP_Helper_SingleListAppend

.text.TCPIP_Helper_ProtectedSingleListUnlock%555
                0x00412860       0x1c
 .text.TCPIP_Helper_ProtectedSingleListUnlock
                0x00412860       0x1c build/default/production/_ext/1033058136/tcpip_helpers.o
                0x00412860                TCPIP_Helper_ProtectedSingleListUnlock

.text._TCPIPSignalEntryNotify%556
                0x0041287c       0x1c
 .text._TCPIPSignalEntryNotify
                0x0041287c       0x1c build/default/production/_ext/1033058136/tcpip_manager.o

.text.TCPIP_Notification_Add%557
                0x00412898       0x1c
 .text.TCPIP_Notification_Add
                0x00412898       0x1c build/default/production/_ext/1033058136/tcpip_notify.o
                0x00412898                TCPIP_Notification_Add

.text.TCPIP_Notification_RemoveAll%558
                0x004128b4       0x1c
 .text.TCPIP_Notification_RemoveAll
                0x004128b4       0x1c build/default/production/_ext/1033058136/tcpip_notify.o
                0x004128b4                TCPIP_Notification_RemoveAll

.text.SYS_TMR_CallbackPeriodic%559
                0x004128d0       0x1c
 .text.SYS_TMR_CallbackPeriodic
                0x004128d0       0x1c build/default/production/_ext/753841488/sys_time_h2_adapter.o
                0x004128d0                SYS_TMR_CallbackPeriodic

.text.TCPIP_UDP_TxPointerGet%560
                0x004128ec       0x1c
 .text.TCPIP_UDP_TxPointerGet
                0x004128ec       0x1c build/default/production/_ext/1033058136/udp.o
                0x004128ec                TCPIP_UDP_TxPointerGet

.text.__locale_mb_cur_max%561
                0x00412908       0x1c
 .text.__locale_mb_cur_max
                0x00412908       0x1c d:/00_program_installation/microchip/xc32/v2.10/bin/bin/../../lib/gcc/pic32c/6.2.1/../../../../pic32c/lib/v7e-m/fpv5/hard\libc.a(lib_a-locale.o)
                0x00412908                __locale_mb_cur_max

.text.__locale_ctype_ptr%562
                0x00412924       0x1c
 .text.__locale_ctype_ptr
                0x00412924       0x1c d:/00_program_installation/microchip/xc32/v2.10/bin/bin/../../lib/gcc/pic32c/6.2.1/../../../../pic32c/lib/v7e-m/fpv5/hard\libc.a(lib_a-locale.o)
                0x00412924                __locale_ctype_ptr

.text.__ascii_wctomb%563
                0x00412940       0x1c
 .text.__ascii_wctomb
                0x00412940       0x1c d:/00_program_installation/microchip/xc32/v2.10/bin/bin/../../lib/gcc/pic32c/6.2.1/../../../../pic32c/lib/v7e-m/fpv5/hard\libc.a(lib_a-wctomb_r.o)
                0x00412940                __ascii_wctomb

.text._snprintf_cdnopsuxX%564
                0x0041295c       0x1c
 .text._snprintf_cdnopsuxX
                0x0041295c       0x1c d:/00_program_installation/microchip/xc32/v2.10/bin/bin/../../lib/gcc/pic32c/6.2.1/../../../../pic32c/lib/v7e-m/fpv5/hard\libc.a(snprintf.cdnopsuxX.o)
                0x0041295c                __snprintf_dis
                0x0041295c                _snprintf_cdnopsuxX

.text._DRV_ETHPHY_NegCompletePhaseResultNoWait%565
                0x00412978       0x1a
 .text._DRV_ETHPHY_NegCompletePhaseResultNoWait
                0x00412978       0x1a build/default/production/_ext/444070925/drv_ethphy.o

.text.Helper_SingleListTailAdd%566
                0x00412992       0x1a
 .text.Helper_SingleListTailAdd
                0x00412992       0x1a build/default/production/_ext/438849557/drv_miim.o
                0x00412992                Helper_SingleListTailAdd

.text.DRV_MIIM_Read%567
                0x004129ac       0x1a
 .text.DRV_MIIM_Read
                0x004129ac       0x1a build/default/production/_ext/438849557/drv_miim.o
                0x004129ac                DRV_MIIM_Read

.text.DRV_MIIM_Write%568
                0x004129c6       0x1a
 .text.DRV_MIIM_Write
                0x004129c6       0x1a build/default/production/_ext/438849557/drv_miim.o
                0x004129c6                DRV_MIIM_Write

.text.DRV_MIIM_Scan%569
                0x004129e0       0x1a
 .text.DRV_MIIM_Scan
                0x004129e0       0x1a build/default/production/_ext/438849557/drv_miim.o
                0x004129e0                DRV_MIIM_Scan

.text.DRV_PIC32CGMAC_SingleListTailAdd%570
                0x004129fa       0x1a
 .text.DRV_PIC32CGMAC_SingleListTailAdd
                0x004129fa       0x1a build/default/production/_ext/1546807373/drv_gmac_lib.o
                0x004129fa                DRV_PIC32CGMAC_SingleListTailAdd

.text.TCPIP_Helper_SingleListTailAdd%571
                0x00412a14       0x1a
 .text.TCPIP_Helper_SingleListTailAdd
                0x00412a14       0x1a build/default/production/_ext/1033058136/tcpip_helpers.o
                0x00412a14                TCPIP_Helper_SingleListTailAdd

.text.TCPIP_STACK_NetIsReady%572
                0x00412a2e       0x1a
 .text.TCPIP_STACK_NetIsReady
                0x00412a2e       0x1a build/default/production/_ext/1033058136/tcpip_manager.o
                0x00412a2e                TCPIP_STACK_NetIsReady

.text.TCPIP_TCP_ClientOpen%573
                0x00412a48       0x1a
 .text.TCPIP_TCP_ClientOpen
                0x00412a48       0x1a build/default/production/_ext/1033058136/tcp.o
                0x00412a48                TCPIP_TCP_ClientOpen

.text.TCPIP_TCP_Disconnect%574
                0x00412a62       0x1a
 .text.TCPIP_TCP_Disconnect
                0x00412a62       0x1a build/default/production/_ext/1033058136/tcp.o
                0x00412a62                TCPIP_TCP_Disconnect

.text.TCPIP_TCP_PutIsReady%575
                0x00412a7c       0x1a
 .text.TCPIP_TCP_PutIsReady
                0x00412a7c       0x1a build/default/production/_ext/1033058136/tcp.o
                0x00412a7c                TCPIP_TCP_PutIsReady

.rodata.tcpipDNSClientInitData%576
                0x00412a98       0x18
 .rodata.tcpipDNSClientInitData
                0x00412a98       0x18 build/default/production/_ext/1171490990/initialization.o
                0x00412a98                tcpipDNSClientInitData

.text.DRV_ETHPHY_PhyAddressGet%577
                0x00412ab0       0x18
 .text.DRV_ETHPHY_PhyAddressGet
                0x00412ab0       0x18 build/default/production/_ext/444070925/drv_ethphy.o
                0x00412ab0                DRV_ETHPHY_PhyAddressGet

.text._DRV_PHY_SMIReadStart%578
                0x00412ac8       0x18
 .text._DRV_PHY_SMIReadStart
                0x00412ac8       0x18 build/default/production/_ext/444070925/drv_ethphy.o

.text._DRV_PHY_SMIWriteStart%579
                0x00412ae0       0x18
 .text._DRV_PHY_SMIWriteStart
                0x00412ae0       0x18 build/default/production/_ext/444070925/drv_ethphy.o

.text._DRV_ETHPHY_ResetPhaseIdle%580
                0x00412af8       0x18
 .text._DRV_ETHPHY_ResetPhaseIdle
                0x00412af8       0x18 build/default/production/_ext/444070925/drv_ethphy.o

.rodata._DRV_PHY_NegCompletePhasesTbl%581
                0x00412b10       0x18
 .rodata._DRV_PHY_NegCompletePhasesTbl
                0x00412b10       0x18 build/default/production/_ext/444070925/drv_ethphy.o

.text.DRV_PIC32CGMAC_SingleListHeadAdd%582
                0x00412b28       0x18
 .text.DRV_PIC32CGMAC_SingleListHeadAdd
                0x00412b28       0x18 build/default/production/_ext/1546807373/drv_gmac_lib.o
                0x00412b28                DRV_PIC32CGMAC_SingleListHeadAdd

.text.TCPIP_ARP_HashKeyHash%583
                0x00412b40       0x18
 .text.TCPIP_ARP_HashKeyHash
                0x00412b40       0x18 build/default/production/_ext/1033058136/arp.o
                0x00412b40                TCPIP_ARP_HashKeyHash

.text.TCPIP_HEAP_Create%584
                0x00412b58       0x18
 .text.TCPIP_HEAP_Create
                0x00412b58       0x18 build/default/production/_ext/1033058136/tcpip_heap_alloc.o
                0x00412b58                TCPIP_HEAP_Create

.text.TCPIP_OAHASH_EntryRemove%585
                0x00412b70       0x18
 .text.TCPIP_OAHASH_EntryRemove
                0x00412b70       0x18 build/default/production/_ext/1033058136/oahash.o
                0x00412b70                TCPIP_OAHASH_EntryRemove

.text.TCPIP_STACK_NetAddressGet%586
                0x00412b88       0x18
 .text.TCPIP_STACK_NetAddressGet
                0x00412b88       0x18 build/default/production/_ext/1033058136/tcpip_manager.o
                0x00412b88                TCPIP_STACK_NetAddressGet

.text.TCPIP_STACK_NetMaskGet%587
                0x00412ba0       0x18
 .text.TCPIP_STACK_NetMaskGet
                0x00412ba0       0x18 build/default/production/_ext/1033058136/tcpip_manager.o
                0x00412ba0                TCPIP_STACK_NetMaskGet

.text.TCPIP_STACK_NetMACAddressGet%588
                0x00412bb8       0x18
 .text.TCPIP_STACK_NetMACAddressGet
                0x00412bb8       0x18 build/default/production/_ext/1033058136/tcpip_manager.o
                0x00412bb8                TCPIP_STACK_NetMACAddressGet

.text._TCPIPStackModuleRxExtract%589
                0x00412bd0       0x18
 .text._TCPIPStackModuleRxExtract
                0x00412bd0       0x18 build/default/production/_ext/1033058136/tcpip_manager.o
                0x00412bd0                _TCPIPStackModuleRxExtract

.rodata.TCPIP_FRAME_PROCESS_TBL%590
                0x00412be8       0x18
 .rodata.TCPIP_FRAME_PROCESS_TBL
                0x00412be8       0x18 build/default/production/_ext/1033058136/tcpip_manager.o

.text._vfprintf_cdnopsuxX%591
                0x00412c00       0x18
 .text._vfprintf_cdnopsuxX
                0x00412c00       0x18 d:/00_program_installation/microchip/xc32/v2.10/bin/bin/../../lib/gcc/pic32c/6.2.1/../../../../pic32c/lib/v7e-m/fpv5/hard\libc.a(vfprintf.cdnopsuxX.o)
                0x00412c00                _vfprintf_cdnopsuxX

.text.DRV_ETHPHY_VendorDataGet%592
                0x00412c18       0x16
 .text.DRV_ETHPHY_VendorDataGet
                0x00412c18       0x16 build/default/production/_ext/444070925/drv_ethphy.o
                0x00412c18                DRV_ETHPHY_VendorDataGet

.text.DRV_MIIM_ClientStatus%593
                0x00412c2e       0x16
 .text.DRV_MIIM_ClientStatus
                0x00412c2e       0x16 build/default/production/_ext/438849557/drv_miim.o
                0x00412c2e                DRV_MIIM_ClientStatus

.text._DHCPSocketRxSignalHandler%594
                0x00412c44       0x16
 .text._DHCPSocketRxSignalHandler
                0x00412c44       0x16 build/default/production/_ext/1033058136/dhcp.o

.text._DNSSocketRxSignalHandler%595
                0x00412c5a       0x16
 .text._DNSSocketRxSignalHandler
                0x00412c5a       0x16 build/default/production/_ext/1033058136/dns.o

.text._TCPIP_HEAP_Size%596
                0x00412c70       0x16
 .text._TCPIP_HEAP_Size
                0x00412c70       0x16 build/default/production/_ext/1033058136/tcpip_heap_internal.o

.text._TCPIP_HEAP_HighWatermark%597
                0x00412c86       0x16
 .text._TCPIP_HEAP_HighWatermark
                0x00412c86       0x16 build/default/production/_ext/1033058136/tcpip_heap_internal.o

.text.TCPIP_Helper_TCPSecurePortGet%598
                0x00412c9c       0x16
 .text.TCPIP_Helper_TCPSecurePortGet
                0x00412c9c       0x16 build/default/production/_ext/1033058136/tcpip_helpers.o
                0x00412c9c                TCPIP_Helper_TCPSecurePortGet

.text.TCPIP_Helper_UDPSecurePortGet%599
                0x00412cb2       0x16
 .text.TCPIP_Helper_UDPSecurePortGet
                0x00412cb2       0x16 build/default/production/_ext/1033058136/tcpip_helpers.o
                0x00412cb2                TCPIP_Helper_UDPSecurePortGet

.text._TCPIPStackPacketTx%600
                0x00412cc8       0x16
 .text._TCPIPStackPacketTx
                0x00412cc8       0x16 build/default/production/_ext/1033058136/tcpip_manager.o
                0x00412cc8                _TCPIPStackPacketTx

.text._TCP_TxPktValid%601
                0x00412cde       0x16
 .text._TCP_TxPktValid
                0x00412cde       0x16 build/default/production/_ext/1033058136/tcp.o

.text.APP_Tasks%602
                0x0040552c       0x14
 .text.APP_Tasks
                0x0040552c       0x14 build/default/production/_ext/1360937237/app.o
                0x0040552c                APP_Tasks

.text._DRV_ETHPHY_NegRestartPhaseIdle%603
                0x00412cf4       0x14
 .text._DRV_ETHPHY_NegRestartPhaseIdle
                0x00412cf4       0x14 build/default/production/_ext/444070925/drv_ethphy.o

.text._DRV_ETHPHY_NegResultPhaseIdle%604
                0x00412d08       0x14
 .text._DRV_ETHPHY_NegResultPhaseIdle
                0x00412d08       0x14 build/default/production/_ext/444070925/drv_ethphy.o

.text._DRV_ETHPHY_NegCompletePhaseIdle%605
                0x00412d1c       0x14
 .text._DRV_ETHPHY_NegCompletePhaseIdle
                0x00412d1c       0x14 build/default/production/_ext/444070925/drv_ethphy.o

.text._DRV_ETHPHY_LinkStatPhaseIdle%606
                0x00412d30       0x14
 .text._DRV_ETHPHY_LinkStatPhaseIdle
                0x00412d30       0x14 build/default/production/_ext/444070925/drv_ethphy.o

.rodata._DRV_PHY_NegResultPhasesTbl%607
                0x00412d44       0x14
 .rodata._DRV_PHY_NegResultPhasesTbl
                0x00412d44       0x14 build/default/production/_ext/444070925/drv_ethphy.o

.rodata._DRV_GMAC_LinkStateTbl%608
                0x00412d58       0x14
 .rodata._DRV_GMAC_LinkStateTbl
                0x00412d58       0x14 build/default/production/_ext/1546807373/drv_gmac.o

.text.time_resourceLock%609
                0x00412d6c       0x14
 .text.time_resourceLock
                0x00412d6c       0x14 build/default/production/_ext/101884895/sys_time.o

.text._DHCPOptionWriteEnd%610
                0x00412d80       0x14
 .text._DHCPOptionWriteEnd
                0x00412d80       0x14 build/default/production/_ext/1033058136/dhcp.o

.text.TCPIP_OAHASH_EntryGet%611
                0x00412d94       0x14
 .text.TCPIP_OAHASH_EntryGet
                0x00412d94       0x14 build/default/production/_ext/1033058136/oahash.o
                0x00412d94                TCPIP_OAHASH_EntryGet

.text._UDPUpdatePacketLock%612
                0x00412da8       0x14
 .text._UDPUpdatePacketLock
                0x00412da8       0x14 build/default/production/_ext/1033058136/udp.o

.rodata%613     0x00412dbc       0x14
 .rodata        0x00412dbc       0x14 d:/00_program_installation/microchip/xc32/v2.10/bin/bin/../../lib/gcc/pic32c/6.2.1/../../../../pic32c/lib/v7e-m/fpv5/hard\libc.a(lib_a-locale.o)

.text.register_fini%614
                0x00412dd0       0x14
 .text.register_fini
                0x00412dd0       0x14 d:/00_program_installation/microchip/xc32/v2.10/bin/bin/../../lib/gcc/pic32c/6.2.1/../../../../pic32c/lib/v7e-m/fpv5/hard\libc.a(lib_a-__call_atexit.o)

.text.__sprint_r%615
                0x00412de4       0x14
 .text.__sprint_r
                0x00412de4       0x14 d:/00_program_installation/microchip/xc32/v2.10/bin/bin/../../lib/gcc/pic32c/6.2.1/../../../../pic32c/lib/v7e-m/fpv5/hard\libc.a(lib_a-vfiprintf.o)
                0x00412de4                __sprint_r

.text.SYS_INT_Disable%616
                0x00412df8       0x12
 .text.SYS_INT_Disable
                0x00412df8       0x12 build/default/production/_ext/1881668453/sys_int.o
                0x00412df8                SYS_INT_Disable

.text.DRV_GMAC_Status%617
                0x00412e0a       0x12
 .text.DRV_GMAC_Status
                0x00412e0a       0x12 build/default/production/_ext/1546807373/drv_gmac.o
                0x00412e0a                DRV_GMAC_Status

.text.DRV_GMAC_Close%618
                0x00412e1c       0x12
 .text.DRV_GMAC_Close
                0x00412e1c       0x12 build/default/production/_ext/1546807373/drv_gmac.o
                0x00412e1c                DRV_GMAC_Close

.text.DRV_GMAC_Deinitialize%619
                0x00412e2e       0x12
 .text.DRV_GMAC_Deinitialize
                0x00412e2e       0x12 build/default/production/_ext/1546807373/drv_gmac.o
                0x00412e2e                DRV_GMAC_Deinitialize

.text.TCPIP_TCP_GetIsReady%620
                0x00412e40       0x12
 .text.TCPIP_TCP_GetIsReady
                0x00412e40       0x12 build/default/production/_ext/1033058136/tcp.o
                0x00412e40                TCPIP_TCP_GetIsReady

.rodata.tcpipDHCPInitData%621
                0x00412e54       0x10
 .rodata.tcpipDHCPInitData
                0x00412e54       0x10 build/default/production/_ext/1171490990/initialization.o
                0x00412e54                tcpipDHCPInitData

.rodata._DRV_PHY_SetupPhasesTbl%622
                0x00412e64       0x10
 .rodata._DRV_PHY_SetupPhasesTbl
                0x00412e64       0x10 build/default/production/_ext/444070925/drv_ethphy.o

.rodata.DRV_ETHPHY_OBJECT_SMSC_LAN8740%623
                0x00412e74       0x10
 .rodata.DRV_ETHPHY_OBJECT_SMSC_LAN8740
                0x00412e74       0x10 build/default/production/_ext/444070925/drv_extphy_smsc8740.o
                0x00412e74                DRV_ETHPHY_OBJECT_SMSC_LAN8740

.text.TCPIP_Notification_Deinitialize%624
                0x00412e84       0x10
 .text.TCPIP_Notification_Deinitialize
                0x00412e84       0x10 build/default/production/_ext/1033058136/tcpip_notify.o
                0x00412e84                TCPIP_Notification_Deinitialize

.text.sy_time_h2_adapter_callback%625
                0x00412e94       0x10
 .text.sy_time_h2_adapter_callback
                0x00412e94       0x10 build/default/production/_ext/753841488/sys_time_h2_adapter.o
                0x00412e94                sy_time_h2_adapter_callback

.text.calloc%626
                0x00412ea4       0x10
 .text.calloc   0x00412ea4       0x10 d:/00_program_installation/microchip/xc32/v2.10/bin/bin/../../lib/gcc/pic32c/6.2.1/../../../../pic32c/lib/v7e-m/fpv5/hard\libc.a(lib_a-calloc.o)
                0x00412ea4                calloc

.text.malloc%627
                0x00412eb4       0x10
 .text.malloc   0x00412eb4       0x10 d:/00_program_installation/microchip/xc32/v2.10/bin/bin/../../lib/gcc/pic32c/6.2.1/../../../../pic32c/lib/v7e-m/fpv5/hard\libc.a(lib_a-malloc.o)
                0x00412eb4                malloc

.text.free%628  0x00412ec4       0x10
 .text.free     0x00412ec4       0x10 d:/00_program_installation/microchip/xc32/v2.10/bin/bin/../../lib/gcc/pic32c/6.2.1/../../../../pic32c/lib/v7e-m/fpv5/hard\libc.a(lib_a-malloc.o)
                0x00412ec4                free

.rodata.blanks.8328%629
                0x00412ed4       0x10
 .rodata.blanks.8328
                0x00412ed4       0x10 d:/00_program_installation/microchip/xc32/v2.10/bin/bin/../../lib/gcc/pic32c/6.2.1/../../../../pic32c/lib/v7e-m/fpv5/hard\libc.a(vfprintf.cdnopsuxX.o)

.rodata.zeroes.8329%630
                0x00412ee4       0x10
 .rodata.zeroes.8329
                0x00412ee4       0x10 d:/00_program_installation/microchip/xc32/v2.10/bin/bin/../../lib/gcc/pic32c/6.2.1/../../../../pic32c/lib/v7e-m/fpv5/hard\libc.a(vfprintf.cdnopsuxX.o)

.text.main%631  0x00412ef4        0xe
 .text.main     0x00412ef4        0xe build/default/production/_ext/1360937237/main.o
                0x00412ef4                main

.text.DRV_ETHPHY_Status%632
                0x00412f02        0xe
 .text.DRV_ETHPHY_Status
                0x00412f02        0xe build/default/production/_ext/444070925/drv_ethphy.o
                0x00412f02                DRV_ETHPHY_Status

.text.DRV_ETHPHY_ClientStatus%633
                0x00412f10        0xe
 .text.DRV_ETHPHY_ClientStatus
                0x00412f10        0xe build/default/production/_ext/444070925/drv_ethphy.o
                0x00412f10                DRV_ETHPHY_ClientStatus

.text.DRV_ETHPHY_ClientOperationResult%634
                0x00412f1e        0xe
 .text.DRV_ETHPHY_ClientOperationResult
                0x00412f1e        0xe build/default/production/_ext/444070925/drv_ethphy.o
                0x00412f1e                DRV_ETHPHY_ClientOperationResult

.text.DRV_ETHPHY_VendorDataSet%635
                0x00412f2c        0xe
 .text.DRV_ETHPHY_VendorDataSet
                0x00412f2c        0xe build/default/production/_ext/444070925/drv_ethphy.o
                0x00412f2c                DRV_ETHPHY_VendorDataSet

.text.TCPIP_Helper_ChecksumFold%636
                0x00412f3a        0xe
 .text.TCPIP_Helper_ChecksumFold
                0x00412f3a        0xe build/default/production/_ext/1033058136/tcpip_helpers.o
                0x00412f3a                TCPIP_Helper_ChecksumFold

.text.TCPIP_STACK_NetIxGet%637
                0x00412f48        0xe
 .text.TCPIP_STACK_NetIxGet
                0x00412f48        0xe build/default/production/_ext/1033058136/tcpip_manager.o
                0x00412f48                TCPIP_STACK_NetIxGet

.text._TCPIPStackSignalHandlerDeregister%638
                0x00412f56        0xe
 .text._TCPIPStackSignalHandlerDeregister
                0x00412f56        0xe build/default/production/_ext/1033058136/tcpip_manager.o
                0x00412f56                _TCPIPStackSignalHandlerDeregister

.text.APP_Initialize%639
                0x00412f64        0xc
 .text.APP_Initialize
                0x00412f64        0xc build/default/production/_ext/1360937237/app.o
                0x00412f64                APP_Initialize

.text.DRV_ETHPHY_Deinitialize%640
                0x00412f70        0xc
 .text.DRV_ETHPHY_Deinitialize
                0x00412f70        0xc build/default/production/_ext/444070925/drv_ethphy.o
                0x00412f70                DRV_ETHPHY_Deinitialize

.rodata._DRV_PHY_LinkStatPhasesTbl%641
                0x00412f7c        0xc
 .rodata._DRV_PHY_LinkStatPhasesTbl
                0x00412f7c        0xc build/default/production/_ext/444070925/drv_ethphy.o

.rodata._DRV_PHY_NegRestartPhasesTbl%642
                0x00412f88        0xc
 .rodata._DRV_PHY_NegRestartPhasesTbl
                0x00412f88        0xc build/default/production/_ext/444070925/drv_ethphy.o

.rodata._DRV_PHY_ResetPhasesTbl%643
                0x00412f94        0xc
 .rodata._DRV_PHY_ResetPhasesTbl
                0x00412f94        0xc build/default/production/_ext/444070925/drv_ethphy.o

.text._DRV_GMAC_GetTxOctetLow%644
                0x00412fa0        0xc
 .text._DRV_GMAC_GetTxOctetLow
                0x00412fa0        0xc build/default/production/_ext/1546807373/drv_gmac.o

.text._DRV_GMAC_GetTxOctetHigh%645
                0x00412fac        0xc
 .text._DRV_GMAC_GetTxOctetHigh
                0x00412fac        0xc build/default/production/_ext/1546807373/drv_gmac.o

.text._DRV_GMAC_GetTxFrameCount%646
                0x00412fb8        0xc
 .text._DRV_GMAC_GetTxFrameCount
                0x00412fb8        0xc build/default/production/_ext/1546807373/drv_gmac.o

.text._DRV_GMAC_GetTxBCastFrameCount%647
                0x00412fc4        0xc
 .text._DRV_GMAC_GetTxBCastFrameCount
                0x00412fc4        0xc build/default/production/_ext/1546807373/drv_gmac.o

.text._DRV_GMAC_GetTxMCastFrameCount%648
                0x00412fd0        0xc
 .text._DRV_GMAC_GetTxMCastFrameCount
                0x00412fd0        0xc build/default/production/_ext/1546807373/drv_gmac.o

.text._DRV_GMAC_GetTxPauseFrameCount%649
                0x00412fdc        0xc
 .text._DRV_GMAC_GetTxPauseFrameCount
                0x00412fdc        0xc build/default/production/_ext/1546807373/drv_gmac.o

.text._DRV_GMAC_GetTx64ByteFrameCount%650
                0x00412fe8        0xc
 .text._DRV_GMAC_GetTx64ByteFrameCount
                0x00412fe8        0xc build/default/production/_ext/1546807373/drv_gmac.o

.text._DRV_GMAC_GetTx127ByteFrameCount%651
                0x00412ff4        0xc
 .text._DRV_GMAC_GetTx127ByteFrameCount
                0x00412ff4        0xc build/default/production/_ext/1546807373/drv_gmac.o

.text._DRV_GMAC_GetTx255ByteFrameCount%652
                0x00413000        0xc
 .text._DRV_GMAC_GetTx255ByteFrameCount
                0x00413000        0xc build/default/production/_ext/1546807373/drv_gmac.o

.text._DRV_GMAC_GetTx511ByteFrameCount%653
                0x0041300c        0xc
 .text._DRV_GMAC_GetTx511ByteFrameCount
                0x0041300c        0xc build/default/production/_ext/1546807373/drv_gmac.o

.text._DRV_GMAC_GetTx1023ByteFrameCount%654
                0x00413018        0xc
 .text._DRV_GMAC_GetTx1023ByteFrameCount
                0x00413018        0xc build/default/production/_ext/1546807373/drv_gmac.o

.text._DRV_GMAC_GetTx1518ByteFrameCount%655
                0x00413024        0xc
 .text._DRV_GMAC_GetTx1518ByteFrameCount
                0x00413024        0xc build/default/production/_ext/1546807373/drv_gmac.o

.text._DRV_GMAC_GetTxGT1518ByteFrameCount%656
                0x00413030        0xc
 .text._DRV_GMAC_GetTxGT1518ByteFrameCount
                0x00413030        0xc build/default/production/_ext/1546807373/drv_gmac.o

.text._DRV_GMAC_GetTxUnderRunFrameCount%657
                0x0041303c        0xc
 .text._DRV_GMAC_GetTxUnderRunFrameCount
                0x0041303c        0xc build/default/production/_ext/1546807373/drv_gmac.o

.text._DRV_GMAC_GetTxSingleCollFrameCount%658
                0x00413048        0xc
 .text._DRV_GMAC_GetTxSingleCollFrameCount
                0x00413048        0xc build/default/production/_ext/1546807373/drv_gmac.o

.text._DRV_GMAC_GetTxMultiCollFrameCount%659
                0x00413054        0xc
 .text._DRV_GMAC_GetTxMultiCollFrameCount
                0x00413054        0xc build/default/production/_ext/1546807373/drv_gmac.o

.text._DRV_GMAC_GetTxExcessCollFrameCount%660
                0x00413060        0xc
 .text._DRV_GMAC_GetTxExcessCollFrameCount
                0x00413060        0xc build/default/production/_ext/1546807373/drv_gmac.o

.text._DRV_GMAC_GetTxLateCollFrameCount%661
                0x0041306c        0xc
 .text._DRV_GMAC_GetTxLateCollFrameCount
                0x0041306c        0xc build/default/production/_ext/1546807373/drv_gmac.o

.text._DRV_GMAC_GetTxDeferFrameCount%662
                0x00413078        0xc
 .text._DRV_GMAC_GetTxDeferFrameCount
                0x00413078        0xc build/default/production/_ext/1546807373/drv_gmac.o

.text._DRV_GMAC_GetTxCSErrorFrameCount%663
                0x00413084        0xc
 .text._DRV_GMAC_GetTxCSErrorFrameCount
                0x00413084        0xc build/default/production/_ext/1546807373/drv_gmac.o

.text._DRV_GMAC_GetRxOctetLow%664
                0x00413090        0xc
 .text._DRV_GMAC_GetRxOctetLow
                0x00413090        0xc build/default/production/_ext/1546807373/drv_gmac.o

.text._DRV_GMAC_GetRxOctetHigh%665
                0x0041309c        0xc
 .text._DRV_GMAC_GetRxOctetHigh
                0x0041309c        0xc build/default/production/_ext/1546807373/drv_gmac.o

.text._DRV_GMAC_GetRxFrameCount%666
                0x004130a8        0xc
 .text._DRV_GMAC_GetRxFrameCount
                0x004130a8        0xc build/default/production/_ext/1546807373/drv_gmac.o

.text._DRV_GMAC_GetRxBCastFrameCount%667
                0x004130b4        0xc
 .text._DRV_GMAC_GetRxBCastFrameCount
                0x004130b4        0xc build/default/production/_ext/1546807373/drv_gmac.o

.text._DRV_GMAC_GetRxMCastFrameCount%668
                0x004130c0        0xc
 .text._DRV_GMAC_GetRxMCastFrameCount
                0x004130c0        0xc build/default/production/_ext/1546807373/drv_gmac.o

.text._DRV_GMAC_GetRxPauseFrameCount%669
                0x004130cc        0xc
 .text._DRV_GMAC_GetRxPauseFrameCount
                0x004130cc        0xc build/default/production/_ext/1546807373/drv_gmac.o

.text._DRV_GMAC_GetRx64ByteFrameCount%670
                0x004130d8        0xc
 .text._DRV_GMAC_GetRx64ByteFrameCount
                0x004130d8        0xc build/default/production/_ext/1546807373/drv_gmac.o

.text._DRV_GMAC_GetRx127ByteFrameCount%671
                0x004130e4        0xc
 .text._DRV_GMAC_GetRx127ByteFrameCount
                0x004130e4        0xc build/default/production/_ext/1546807373/drv_gmac.o

.text._DRV_GMAC_GetRx255ByteFrameCount%672
                0x004130f0        0xc
 .text._DRV_GMAC_GetRx255ByteFrameCount
                0x004130f0        0xc build/default/production/_ext/1546807373/drv_gmac.o

.text._DRV_GMAC_GetRx511ByteFrameCount%673
                0x004130fc        0xc
 .text._DRV_GMAC_GetRx511ByteFrameCount
                0x004130fc        0xc build/default/production/_ext/1546807373/drv_gmac.o

.text._DRV_GMAC_GetRx1023ByteFrameCount%674
                0x00413108        0xc
 .text._DRV_GMAC_GetRx1023ByteFrameCount
                0x00413108        0xc build/default/production/_ext/1546807373/drv_gmac.o

.text._DRV_GMAC_GetRx1518ByteFrameCount%675
                0x00413114        0xc
 .text._DRV_GMAC_GetRx1518ByteFrameCount
                0x00413114        0xc build/default/production/_ext/1546807373/drv_gmac.o

.text._DRV_GMAC_GetRxGT1518ByteFrameCount%676
                0x00413120        0xc
 .text._DRV_GMAC_GetRxGT1518ByteFrameCount
                0x00413120        0xc build/default/production/_ext/1546807373/drv_gmac.o

.text._DRV_GMAC_GetRxUnderSizeFrameCount%677
                0x0041312c        0xc
 .text._DRV_GMAC_GetRxUnderSizeFrameCount
                0x0041312c        0xc build/default/production/_ext/1546807373/drv_gmac.o

.text._DRV_GMAC_GetRxOverSizeFrameCount%678
                0x00413138        0xc
 .text._DRV_GMAC_GetRxOverSizeFrameCount
                0x00413138        0xc build/default/production/_ext/1546807373/drv_gmac.o

.text._DRV_GMAC_GetRxJabberFrameCount%679
                0x00413144        0xc
 .text._DRV_GMAC_GetRxJabberFrameCount
                0x00413144        0xc build/default/production/_ext/1546807373/drv_gmac.o

.text._DRV_GMAC_GetRxFCSErrorFrameCount%680
                0x00413150        0xc
 .text._DRV_GMAC_GetRxFCSErrorFrameCount
                0x00413150        0xc build/default/production/_ext/1546807373/drv_gmac.o

.text._DRV_GMAC_GetRxLFErrorFrameCount%681
                0x0041315c        0xc
 .text._DRV_GMAC_GetRxLFErrorFrameCount
                0x0041315c        0xc build/default/production/_ext/1546807373/drv_gmac.o

.text._DRV_GMAC_GetRxSymErrorFrameCount%682
                0x00413168        0xc
 .text._DRV_GMAC_GetRxSymErrorFrameCount
                0x00413168        0xc build/default/production/_ext/1546807373/drv_gmac.o

.text._DRV_GMAC_GetRxAlignErrorFrameCount%683
                0x00413174        0xc
 .text._DRV_GMAC_GetRxAlignErrorFrameCount
                0x00413174        0xc build/default/production/_ext/1546807373/drv_gmac.o

.text._DRV_GMAC_GetRxResErrorFrameCount%684
                0x00413180        0xc
 .text._DRV_GMAC_GetRxResErrorFrameCount
                0x00413180        0xc build/default/production/_ext/1546807373/drv_gmac.o

.text._DRV_GMAC_GetRxOverRunFrameCount%685
                0x0041318c        0xc
 .text._DRV_GMAC_GetRxOverRunFrameCount
                0x0041318c        0xc build/default/production/_ext/1546807373/drv_gmac.o

.text._DRV_GMAC_GetRxIPHdrCSErrorFrameCount%686
                0x00413198        0xc
 .text._DRV_GMAC_GetRxIPHdrCSErrorFrameCount
                0x00413198        0xc build/default/production/_ext/1546807373/drv_gmac.o

.text._DRV_GMAC_GetRxTCPCSErrorFrameCount%687
                0x004131a4        0xc
 .text._DRV_GMAC_GetRxTCPCSErrorFrameCount
                0x004131a4        0xc build/default/production/_ext/1546807373/drv_gmac.o

.text._DRV_GMAC_GetRxUDPCSErrorFrameCount%688
                0x004131b0        0xc
 .text._DRV_GMAC_GetRxUDPCSErrorFrameCount
                0x004131b0        0xc build/default/production/_ext/1546807373/drv_gmac.o

.rodata%689     0x004131bc        0xc
 .rodata        0x004131bc        0xc build/default/production/_ext/1546807373/drv_gmac.o

.text.SYS_TIME_FrequencyGet%690
                0x004131c8        0xc
 .text.SYS_TIME_FrequencyGet
                0x004131c8        0xc build/default/production/_ext/101884895/sys_time.o
                0x004131c8                SYS_TIME_FrequencyGet

.text.TC0_CH0_TimerStart%691
                0x004131d4        0xc
 .text.TC0_CH0_TimerStart
                0x004131d4        0xc build/default/production/_ext/829342655/plib_tc0.o
                0x004131d4                TC0_CH0_TimerStart

.text.TC0_CH0_TimerStop%692
                0x004131e0        0xc
 .text.TC0_CH0_TimerStop
                0x004131e0        0xc build/default/production/_ext/829342655/plib_tc0.o
                0x004131e0                TC0_CH0_TimerStop

.text.TC0_CH0_TimerPeriodSet%693
                0x004131ec        0xc
 .text.TC0_CH0_TimerPeriodSet
                0x004131ec        0xc build/default/production/_ext/829342655/plib_tc0.o
                0x004131ec                TC0_CH0_TimerPeriodSet

.text.TC0_CH0_TimerCounterGet%694
                0x004131f8        0xc
 .text.TC0_CH0_TimerCounterGet
                0x004131f8        0xc build/default/production/_ext/829342655/plib_tc0.o
                0x004131f8                TC0_CH0_TimerCounterGet

.text.TC0_CH0_TimerCallbackRegister%695
                0x00413204        0xc
 .text.TC0_CH0_TimerCallbackRegister
                0x00413204        0xc build/default/production/_ext/829342655/plib_tc0.o
                0x00413204                TC0_CH0_TimerCallbackRegister

.text.TCPIP_ARP_HashKeyCompare%696
                0x00413210        0xc
 .text.TCPIP_ARP_HashKeyCompare
                0x00413210        0xc build/default/production/_ext/1033058136/arp.o
                0x00413210                TCPIP_ARP_HashKeyCompare

.text.TCPIP_DNS_OAHASH_KeyCompare%697
                0x0041321c        0xc
 .text.TCPIP_DNS_OAHASH_KeyCompare
                0x0041321c        0xc build/default/production/_ext/1033058136/dns.o

.text.TCPIP_STACK_NetDefaultGet%698
                0x00413228        0xc
 .text.TCPIP_STACK_NetDefaultGet
                0x00413228        0xc build/default/production/_ext/1033058136/tcpip_manager.o
                0x00413228                TCPIP_STACK_NetDefaultGet

.text.TCPIP_STACK_NumberOfNetworksGet%699
                0x00413234        0xc
 .text.TCPIP_STACK_NumberOfNetworksGet
                0x00413234        0xc build/default/production/_ext/1033058136/tcpip_manager.o
                0x00413234                TCPIP_STACK_NumberOfNetworksGet

.rodata.TCPIP_STACK_IF_ALIAS_NAME_TBL%700
                0x00413240        0xc
 .rodata.TCPIP_STACK_IF_ALIAS_NAME_TBL
                0x00413240        0xc build/default/production/_ext/1033058136/tcpip_manager.o

.text.TCPIP_PKT_Deinitialize%701
                0x0041324c        0xc
 .text.TCPIP_PKT_Deinitialize
                0x0041324c        0xc build/default/production/_ext/1033058136/tcpip_packet.o
                0x0041324c                TCPIP_PKT_Deinitialize

.text.__errno%702
                0x00413258        0xc
 .text.__errno  0x00413258        0xc d:/00_program_installation/microchip/xc32/v2.10/bin/bin/../../lib/gcc/pic32c/6.2.1/../../../../pic32c/lib/v7e-m/fpv5/hard\libc.a(lib_a-errno.o)
                0x00413258                __errno

.text.atexit%703
                0x00413264        0xc
 .text.atexit   0x00413264        0xc d:/00_program_installation/microchip/xc32/v2.10/bin/bin/../../lib/gcc/pic32c/6.2.1/../../../../pic32c/lib/v7e-m/fpv5/hard\libc.a(lib_a-atexit.o)
                0x00413264                atexit

.text._cleanup_r%704
                0x00413270        0xc
 .text._cleanup_r
                0x00413270        0xc d:/00_program_installation/microchip/xc32/v2.10/bin/bin/../../lib/gcc/pic32c/6.2.1/../../../../pic32c/lib/v7e-m/fpv5/hard\libc.a(lib_a-findfp.o)
                0x00413270                _cleanup_r

.text.__sinit%705
                0x0041327c        0xc
 .text.__sinit  0x0041327c        0xc d:/00_program_installation/microchip/xc32/v2.10/bin/bin/../../lib/gcc/pic32c/6.2.1/../../../../pic32c/lib/v7e-m/fpv5/hard\libc.a(lib_a-findfp.o)
                0x0041327c                __sinit

.text._fstat%706
                0x00413288        0xc
 .text._fstat   0x00413288        0xc d:/00_program_installation/microchip/xc32/v2.10/bin/bin/../../lib/gcc/pic32c/6.2.1/../../../../pic32c/lib/v7e-m/fpv5/hard\libpic32c.a(fstat.o)
                0x00413288                _fstat

.text.SYS_INT_Restore%707
                0x00413294        0xa
 .text.SYS_INT_Restore
                0x00413294        0xa build/default/production/_ext/1881668453/sys_int.o
                0x00413294                SYS_INT_Restore

.text.GMAC_InterruptHandler%708
                0x0041329e        0xa
 .text.GMAC_InterruptHandler
                0x0041329e        0xa build/default/production/_ext/1546807373/drv_gmac.o
                0x0041329e                GMAC_InterruptHandler

.text.TCPIP_Helper_SingleListInitialize%709
                0x004132a8        0xa
 .text.TCPIP_Helper_SingleListInitialize
                0x004132a8        0xa build/default/production/_ext/1033058136/tcpip_helpers.o
                0x004132a8                TCPIP_Helper_SingleListInitialize

.text.TCPIP_STACK_NetBIOSName%710
                0x004132b2        0xa
 .text.TCPIP_STACK_NetBIOSName
                0x004132b2        0xa build/default/production/_ext/1033058136/tcpip_manager.o
                0x004132b2                TCPIP_STACK_NetBIOSName

.text.TCPIP_UDP_ServerOpen%711
                0x004132bc        0xa
 .text.TCPIP_UDP_ServerOpen
                0x004132bc        0xa build/default/production/_ext/1033058136/udp.o
                0x004132bc                TCPIP_UDP_ServerOpen

.text.TCPIP_UDP_ClientOpen%712
                0x004132c6        0xa
 .text.TCPIP_UDP_ClientOpen
                0x004132c6        0xa build/default/production/_ext/1033058136/udp.o
                0x004132c6                TCPIP_UDP_ClientOpen

.rodata.drvMiimInitData%713
                0x004132d0        0x8
 .rodata.drvMiimInitData
                0x004132d0        0x8 build/default/production/_ext/1171490990/initialization.o

.rodata.netPresInitData%714
                0x004132d8        0x8
 .rodata.netPresInitData
                0x004132d8        0x8 build/default/production/_ext/1171490990/initialization.o

.rodata.tcpipTCPInitData%715
                0x004132e0        0x8
 .rodata.tcpipTCPInitData
                0x004132e0        0x8 build/default/production/_ext/1171490990/initialization.o
                0x004132e0                tcpipTCPInitData

.rodata.tcpipUDPInitData%716
                0x004132e8        0x8
 .rodata.tcpipUDPInitData
                0x004132e8        0x8 build/default/production/_ext/1171490990/initialization.o
                0x004132e8                tcpipUDPInitData

.text._DRV_ETHPHY_ClientOpSmiScan%717
                0x004132f0        0x8
 .text._DRV_ETHPHY_ClientOpSmiScan
                0x004132f0        0x8 build/default/production/_ext/444070925/drv_ethphy.o

.text.DRV_EXTPHY_SMIClockGet%718
                0x004132f8        0x8
 .text.DRV_EXTPHY_SMIClockGet
                0x004132f8        0x8 build/default/production/_ext/444070925/drv_extphy_smsc8740.o

.text.DRV_GMAC_EventPendingGet%719
                0x00413300        0x8
 .text.DRV_GMAC_EventPendingGet
                0x00413300        0x8 build/default/production/_ext/1546807373/drv_gmac.o
                0x00413300                DRV_GMAC_EventPendingGet

.rodata%720     0x00413308        0x8
 .rodata        0x00413308        0x8 build/default/production/_ext/1033058136/dhcp.o

.text.TCPIP_HEAP_MallocOutline%721
                0x00413310        0x8
 .text.TCPIP_HEAP_MallocOutline
                0x00413310        0x8 build/default/production/_ext/1033058136/tcpip_heap_alloc.o
                0x00413310                TCPIP_HEAP_MallocOutline

.text.TCPIP_HEAP_CallocOutline%722
                0x00413318        0x8
 .text.TCPIP_HEAP_CallocOutline
                0x00413318        0x8 build/default/production/_ext/1033058136/tcpip_heap_alloc.o
                0x00413318                TCPIP_HEAP_CallocOutline

.text.TCPIP_HEAP_FreeOutline%723
                0x00413320        0x8
 .text.TCPIP_HEAP_FreeOutline
                0x00413320        0x8 build/default/production/_ext/1033058136/tcpip_heap_alloc.o
                0x00413320                TCPIP_HEAP_FreeOutline

.text.TCPIP_STACK_GatewayAddressSet%724
                0x00413328        0x8
 .text.TCPIP_STACK_GatewayAddressSet
                0x00413328        0x8 build/default/production/_ext/1033058136/tcpip_manager.o
                0x00413328                TCPIP_STACK_GatewayAddressSet

.text.TCPIP_STACK_PrimaryDNSAddressSet%725
                0x00413330        0x8
 .text.TCPIP_STACK_PrimaryDNSAddressSet
                0x00413330        0x8 build/default/production/_ext/1033058136/tcpip_manager.o
                0x00413330                TCPIP_STACK_PrimaryDNSAddressSet

.text.TCPIP_STACK_SecondaryDNSAddressSet%726
                0x00413338        0x8
 .text.TCPIP_STACK_SecondaryDNSAddressSet
                0x00413338        0x8 build/default/production/_ext/1033058136/tcpip_manager.o
                0x00413338                TCPIP_STACK_SecondaryDNSAddressSet

.text.TCPIP_Notification_Initialize%727
                0x00413340        0x8
 .text.TCPIP_Notification_Initialize
                0x00413340        0x8 build/default/production/_ext/1033058136/tcpip_notify.o
                0x00413340                TCPIP_Notification_Initialize

.text.TCPIP_UDP_TxPutIsReady%728
                0x00413348        0x8
 .text.TCPIP_UDP_TxPutIsReady
                0x00413348        0x8 build/default/production/_ext/1033058136/udp.o
                0x00413348                TCPIP_UDP_TxPutIsReady

.text.__sclose%729
                0x00413350        0x8
 .text.__sclose
                0x00413350        0x8 d:/00_program_installation/microchip/xc32/v2.10/bin/bin/../../lib/gcc/pic32c/6.2.1/../../../../pic32c/lib/v7e-m/fpv5/hard\libc.a(lib_a-stdio.o)
                0x00413350                __sclose

.text._close%730
                0x00413358        0x8
 .text._close   0x00413358        0x8 d:/00_program_installation/microchip/xc32/v2.10/bin/bin/../../lib/gcc/pic32c/6.2.1/../../../../pic32c/lib/v7e-m/fpv5/hard\libpic32c.a(close.o)
                0x00413358                _close

.text.DRV_ETHPHY_SMIRead%731
                0x00413360        0x6
 .text.DRV_ETHPHY_SMIRead
                0x00413360        0x6 build/default/production/_ext/444070925/drv_ethphy.o
                0x00413360                DRV_ETHPHY_SMIRead

.text.DRV_ETHPHY_SMIWrite%732
                0x00413366        0x6
 .text.DRV_ETHPHY_SMIWrite
                0x00413366        0x6 build/default/production/_ext/444070925/drv_ethphy.o
                0x00413366                DRV_ETHPHY_SMIWrite

.text.DRV_ETHPHY_SMIScanStart%733
                0x0041336c        0x6
 .text.DRV_ETHPHY_SMIScanStart
                0x0041336c        0x6 build/default/production/_ext/444070925/drv_ethphy.o
                0x0041336c                DRV_ETHPHY_SMIScanStart

.text.DRV_ETHPHY_SMIScanStop%734
                0x00413372        0x6
 .text.DRV_ETHPHY_SMIScanStop
                0x00413372        0x6 build/default/production/_ext/444070925/drv_ethphy.o
                0x00413372                DRV_ETHPHY_SMIScanStop

.text.DRV_ETHPHY_SMIScanStatusGet%735
                0x00413378        0x6
 .text.DRV_ETHPHY_SMIScanStatusGet
                0x00413378        0x6 build/default/production/_ext/444070925/drv_ethphy.o
                0x00413378                DRV_ETHPHY_SMIScanStatusGet

.text.DRV_ETHPHY_SMIScanDataGet%736
                0x0041337e        0x6
 .text.DRV_ETHPHY_SMIScanDataGet
                0x0041337e        0x6 build/default/production/_ext/444070925/drv_ethphy.o
                0x0041337e                DRV_ETHPHY_SMIScanDataGet

.text.DRV_ETHPHY_SMIStatus%737
                0x00413384        0x6
 .text.DRV_ETHPHY_SMIStatus
                0x00413384        0x6 build/default/production/_ext/444070925/drv_ethphy.o
                0x00413384                DRV_ETHPHY_SMIStatus

.text.DRV_ETHPHY_SMIClockSet%738
                0x0041338a        0x6
 .text.DRV_ETHPHY_SMIClockSet
                0x0041338a        0x6 build/default/production/_ext/444070925/drv_ethphy.o
                0x0041338a                DRV_ETHPHY_SMIClockSet

.text.TCPIP_ARP_HashKeyCopy%739
                0x00413390        0x6
 .text.TCPIP_ARP_HashKeyCopy
                0x00413390        0x6 build/default/production/_ext/1033058136/arp.o
                0x00413390                TCPIP_ARP_HashKeyCopy

.rodata.tcpipBerkeleyInitData%740
                0x00413398        0x4
 .rodata.tcpipBerkeleyInitData
                0x00413398        0x4 build/default/production/_ext/1171490990/initialization.o
                0x00413398                tcpipBerkeleyInitData

.text.DRV_GMAC_PowerMode%741
                0x0041339c        0x4
 .text.DRV_GMAC_PowerMode
                0x0041339c        0x4 build/default/production/_ext/1546807373/drv_gmac.o
                0x0041339c                DRV_GMAC_PowerMode

.text._DHCPOptionProcessEnd%742
                0x004133a0        0x4
 .text._DHCPOptionProcessEnd
                0x004133a0        0x4 build/default/production/_ext/1033058136/dhcp.o

.rodata._DHCPRequestParamsTbl%743
                0x004133a4        0x4
 .rodata._DHCPRequestParamsTbl
                0x004133a4        0x4 build/default/production/_ext/1033058136/dhcp.o

.rodata.dhcpMagicCookie%744
                0x004133a8        0x4
 .rodata.dhcpMagicCookie
                0x004133a8        0x4 build/default/production/_ext/1033058136/dhcp.o

.text.TCPIP_IPV4_IsFragmentationEnabled%745
                0x004133ac        0x4
 .text.TCPIP_IPV4_IsFragmentationEnabled
                0x004133ac        0x4 build/default/production/_ext/1033058136/ipv4.o
                0x004133ac                TCPIP_IPV4_IsFragmentationEnabled

.text%746       0x004133b0        0x4
 .text          0x004133b0        0x4 d:/00_program_installation/microchip/xc32/v2.10/bin/bin/../../lib/gcc/pic32c/6.2.1/v7e-m/fpv5/hard\libgcc.a(_dvmd_tls.o)
                0x004133b0                __aeabi_idiv0
                0x004133b0                __aeabi_ldiv0

.rodata._global_impure_ptr%747
                0x004133b4        0x4
 .rodata._global_impure_ptr
                0x004133b4        0x4 d:/00_program_installation/microchip/xc32/v2.10/bin/bin/../../lib/gcc/pic32c/6.2.1/../../../../pic32c/lib/v7e-m/fpv5/hard\libc.a(lib_a-impure.o)
                0x004133b4                _global_impure_ptr

.text.__malloc_lock%748
                0x004133b8        0x4
 .text.__malloc_lock
                0x004133b8        0x4 d:/00_program_installation/microchip/xc32/v2.10/bin/bin/../../lib/gcc/pic32c/6.2.1/../../../../pic32c/lib/v7e-m/fpv5/hard\libc.a(lib_a-mlock.o)
                0x004133b8                __malloc_lock

.text.__malloc_unlock%749
                0x004133bc        0x4
 .text.__malloc_unlock
                0x004133bc        0x4 d:/00_program_installation/microchip/xc32/v2.10/bin/bin/../../lib/gcc/pic32c/6.2.1/../../../../pic32c/lib/v7e-m/fpv5/hard\libc.a(lib_a-mlock.o)
                0x004133bc                __malloc_unlock

.text.__sfp_lock_acquire%750
                0x004133c0        0x4
 .text.__sfp_lock_acquire
                0x004133c0        0x4 d:/00_program_installation/microchip/xc32/v2.10/bin/bin/../../lib/gcc/pic32c/6.2.1/../../../../pic32c/lib/v7e-m/fpv5/hard\libc.a(lib_a-findfp.o)
                0x004133c0                __sfp_lock_acquire

.text.__sfp_lock_release%751
                0x004133c4        0x4
 .text.__sfp_lock_release
                0x004133c4        0x4 d:/00_program_installation/microchip/xc32/v2.10/bin/bin/../../lib/gcc/pic32c/6.2.1/../../../../pic32c/lib/v7e-m/fpv5/hard\libc.a(lib_a-findfp.o)
                0x004133c4                __sfp_lock_release

.text._isatty%752
                0x004133c8        0x4
 .text._isatty  0x004133c8        0x4 d:/00_program_installation/microchip/xc32/v2.10/bin/bin/../../lib/gcc/pic32c/6.2.1/../../../../pic32c/lib/v7e-m/fpv5/hard\libpic32c.a(isatty.o)
                0x004133c8                _isatty

.text._lseek%753
                0x004133cc        0x4
 .text._lseek   0x004133cc        0x4 d:/00_program_installation/microchip/xc32/v2.10/bin/bin/../../lib/gcc/pic32c/6.2.1/../../../../pic32c/lib/v7e-m/fpv5/hard\libpic32c.a(lseek.o)
                0x004133cc                _lseek

.text._mon_getc%754
                0x004133d0        0x4
 .text._mon_getc
                0x004133d0        0x4 d:/00_program_installation/microchip/xc32/v2.10/bin/bin/../../lib/gcc/pic32c/6.2.1/../../../../pic32c/lib/v7e-m/fpv5/hard\libpic32c.a(_mon_getc.o)
                0x004133d0                _mon_getc

.text._mon_putc%755
                0x004133d4        0x4
 .text._mon_putc
                0x004133d4        0x4 d:/00_program_installation/microchip/xc32/v2.10/bin/bin/../../lib/gcc/pic32c/6.2.1/../../../../pic32c/lib/v7e-m/fpv5/hard\libpic32c.a(_mon_putc.o)
                0x004133d4                _mon_putc

.text.Dummy_Handler%756
                0x00406d1e        0x2
 .text.Dummy_Handler
                0x00406d1e        0x2 build/default/production/_ext/1171490990/interrupts.o
                0x00406d1e                DACC_Handler
                0x00406d1e                SVCall_Handler
                0x00406d1e                TC0_CH2_Handler
                0x00406d1e                TC3_CH1_Handler
                0x00406d1e                UART3_Handler
                0x00406d1e                UART2_Handler
                0x00406d1e                TRNG_Handler
                0x00406d1e                SysTick_Handler
                0x00406d1e                AFEC1_Handler
                0x00406d1e                PendSV_Handler
                0x00406d1e                TC0_CH1_Handler
                0x00406d1e                QSPI_Handler
                0x00406d1e                ISI_Handler
                0x00406d1e                MCAN0_INT0_Handler
                0x00406d1e                USART0_Handler
                0x00406d1e                TC1_CH2_Handler
                0x00406d1e                RTT_Handler
                0x00406d1e                USBHS_Handler
                0x00406d1e                IXC_Handler
                0x00406d1e                CCF_Handler
                0x00406d1e                PIOB_Handler
                0x00406d1e                RTC_Handler
                0x00406d1e                WDT0_Handler
                0x00406d1e                MCAN1_INT1_Handler
                0x00406d1e                HSMCI_Handler
                0x00406d1e                UART1_Handler
                0x00406d1e                Dummy_Handler
                0x00406d1e                TWIHS1_Handler
                0x00406d1e                TC3_CH2_Handler
                0x00406d1e                XDMAC_Handler
                0x00406d1e                UART4_Handler
                0x00406d1e                TC2_CH0_Handler
                0x00406d1e                PWM1_Handler
                0x00406d1e                USART1_Handler
                0x00406d1e                PWM0_Handler
                0x00406d1e                PIOA_Handler
                0x00406d1e                AFEC0_Handler
                0x00406d1e                CCW_Handler
                0x00406d1e                TC3_CH0_Handler
                0x00406d1e                SSC_Handler
                0x00406d1e                TC1_CH0_Handler
                0x00406d1e                ACC_Handler
                0x00406d1e                PMC_Handler
                0x00406d1e                TC2_CH2_Handler
                0x00406d1e                MCAN0_INT1_Handler
                0x00406d1e                GMAC_Q5_Handler
                0x00406d1e                SUPC_Handler
                0x00406d1e                TC2_CH1_Handler
                0x00406d1e                MCAN1_INT0_Handler
                0x00406d1e                EFC_Handler
                0x00406d1e                GMAC_Q1_Handler
                0x00406d1e                USART2_Handler
                0x00406d1e                SDRAMC_Handler
                0x00406d1e                GMAC_Q2_Handler
                0x00406d1e                PIOE_Handler
                0x00406d1e                SPI1_Handler
                0x00406d1e                TC1_CH1_Handler
                0x00406d1e                GMAC_Q3_Handler
                0x00406d1e                PIOD_Handler
                0x00406d1e                TWIHS2_Handler
                0x00406d1e                RSWDT0_Handler
                0x00406d1e                I2SC0_Handler
                0x00406d1e                UART0_Handler
                0x00406d1e                I2SC1_Handler
                0x00406d1e                PIOC_Handler
                0x00406d1e                GMAC_Q4_Handler
                0x00406d1e                FPU_Handler
                0x00406d1e                RSTC_Handler
                0x00406d1e                ICM_Handler
                0x00406d1e                AES_Handler
                0x00406d1e                TWIHS0_Handler
                0x00406d1e                SPI0_Handler

.text.NonMaskableInt_Handler%757
                0x00409416        0x2
 .text.NonMaskableInt_Handler
                0x00409416        0x2 build/default/production/_ext/1171490990/exceptions.o
                0x00409416                NonMaskableInt_Handler

.text.HardFault_Handler%758
                0x00409986        0x2
 .text.HardFault_Handler
                0x00409986        0x2 build/default/production/_ext/1171490990/exceptions.o
                0x00409986                HardFault_Handler

.text.DebugMonitor_Handler%759
                0x0040a066        0x2
 .text.DebugMonitor_Handler
                0x0040a066        0x2 build/default/production/_ext/1171490990/exceptions.o
                0x0040a066                DebugMonitor_Handler

.text.MemoryManagement_Handler%760
                0x0040aeaa        0x2
 .text.MemoryManagement_Handler
                0x0040aeaa        0x2 build/default/production/_ext/1171490990/exceptions.o
                0x0040aeaa                MemoryManagement_Handler

.text.BusFault_Handler%761
                0x0040b8ca        0x2
 .text.BusFault_Handler
                0x0040b8ca        0x2 build/default/production/_ext/1171490990/exceptions.o
                0x0040b8ca                BusFault_Handler

.text.UsageFault_Handler%762
                0x0040c40e        0x2
 .text.UsageFault_Handler
                0x0040c40e        0x2 build/default/production/_ext/1171490990/exceptions.o
                0x0040c40e                UsageFault_Handler

.text._DRV_ETHPHY_ClientOpNone%763
                0x0040c55e        0x2
 .text._DRV_ETHPHY_ClientOpNone
                0x0040c55e        0x2 build/default/production/_ext/444070925/drv_ethphy.o

.text.DRV_MIIM_Reinitialize%764
                0x0040ce2a        0x2
 .text.DRV_MIIM_Reinitialize
                0x0040ce2a        0x2 build/default/production/_ext/438849557/drv_miim.o
                0x0040ce2a                DRV_MIIM_Reinitialize

.text.DRV_GMAC_Reinitialize%765
                0x0040d78e        0x2
 .text.DRV_GMAC_Reinitialize
                0x0040d78e        0x2 build/default/production/_ext/1546807373/drv_gmac.o
                0x0040d78e                DRV_GMAC_Reinitialize

.text._TCPIP_HEAP_BufferMapNonCached%766
                0x0040dc06        0x2
 .text._TCPIP_HEAP_BufferMapNonCached
                0x0040dc06        0x2 build/default/production/_ext/1033058136/tcpip_heap_alloc.o
                0x0040dc06                _TCPIP_HEAP_BufferMapNonCached
